
dyntest.elf:     file format elf32-tradlittlemips


Disassembly of section .interp:

00400114 <.interp>:
  400114:	7273752f 	0x7273752f
  400118:	62696c2f 	0x62696c2f
  40011c:	62696c2f 	0x62696c2f
  400120:	6f732e63 	0x6f732e63
  400124:	Address 0x0000000000400124 is out of bounds.


Disassembly of section .MIPS.abiflags:

00400128 <.MIPS.abiflags>:
  400128:	02200000 	0x2200000
  40012c:	03000001 	movf	zero,t8,$fcc0
  400130:	00000000 	nop
  400134:	00000008 	jr	zero
  400138:	00000001 	movf	zero,zero,$fcc0
  40013c:	00000000 	nop

Disassembly of section .reginfo:

00400140 <.reginfo>:
  400140:	b20700f4 	0xb20700f4
	...
  400154:	00419370 	tge	v0,at,0x24d

Disassembly of section .dynamic:

00400140 <_DYNAMIC>:
  400140:	00000001 	movf	zero,zero,$fcc0
  400144:	00000030 	tge	zero,zero
  400148:	00000004 	sllv	zero,zero,zero
  40014c:	004001f8 	0x4001f8
  400150:	00000005 	lsa	zero,zero,zero,0x1
  400154:	00400324 	0x400324
  400158:	00000006 	srlv	zero,zero,zero
  40015c:	00400244 	0x400244
  400160:	0000000a 	movz	zero,zero,zero
  400164:	00000082 	srl	zero,zero,0x2
  400168:	0000000b 	movn	zero,zero,zero
  40016c:	00000010 	mfhi	zero
  400170:	70000016 	udi6	zero,zero,zero,0x0
  400174:	00411374 	teq	v0,at,0x4d
  400178:	70000035 	0x70000035
  40017c:	000111fc 	0x111fc
  400180:	00000015 	0x15
  400184:	00000000 	nop
  400188:	00000003 	sra	zero,zero,0x0
  40018c:	00411380 	0x411380
  400190:	70000001 	maddu	zero,zero
  400194:	00000001 	movf	zero,zero,$fcc0
  400198:	70000005 	msubu	zero,zero
  40019c:	00000002 	srl	zero,zero,0x0
  4001a0:	70000006 	0x70000006
  4001a4:	00400000 	0x400000
  4001a8:	7000000a 	0x7000000a
  4001ac:	00000005 	lsa	zero,zero,zero,0x1
  4001b0:	70000011 	udi1	zero,zero,zero,0x0
  4001b4:	0000000e 	0xe
  4001b8:	70000012 	udi2	zero,zero,zero,0x0
  4001bc:	00000019 	multu	zero,zero
  4001c0:	70000013 	udi3	zero,zero,zero,0x0
  4001c4:	0000000a 	movz	zero,zero,zero
	...

Disassembly of section .hash:

004001f8 <.hash>:
  4001f8:	00000003 	sra	zero,zero,0x0
  4001fc:	0000000e 	0xe
  400200:	00000009 	jalr	zero,zero
  400204:	00000008 	jr	zero
  400208:	00000006 	srlv	zero,zero,zero
  40020c:	00000000 	nop
  400210:	0000000d 	break
  400214:	00000001 	movf	zero,zero,$fcc0
  400218:	00000000 	nop
  40021c:	0000000c 	syscall
  400220:	00000004 	sllv	zero,zero,zero
  400224:	00000005 	lsa	zero,zero,zero,0x1
  400228:	0000000b 	movn	zero,zero,zero
  40022c:	0000000a 	movz	zero,zero,zero
  400230:	00000007 	srav	zero,zero,zero
  400234:	00000002 	srl	zero,zero,0x0
  400238:	00000003 	sra	zero,zero,0x0
	...

Disassembly of section .dynsym:

00400244 <.dynsym>:
	...
  400254:	0000005d 	0x5d
  400258:	00411374 	teq	v0,at,0x4d
  40025c:	00000000 	nop
  400260:	000b0010 	0xb0010
  400264:	0000003b 	0x3b
  400268:	00000001 	movf	zero,zero,$fcc0
  40026c:	00000000 	nop
  400270:	fff10013 	sdc3	$17,19(ra)
  400274:	00000001 	movf	zero,zero,$fcc0
  400278:	00400888 	0x400888
  40027c:	00000044 	0x44
  400280:	00080012 	0x80012
  400284:	00000056 	0x56
  400288:	004003a8 	0x4003a8
  40028c:	00000000 	nop
  400290:	00080010 	0x80010
  400294:	0000004c 	syscall	0x1
  400298:	00411374 	teq	v0,at,0x4d
  40029c:	00000000 	nop
  4002a0:	000b0011 	0xb0011
  4002a4:	0000006b 	0x6b
  4002a8:	004113a4 	0x4113a4
  4002ac:	00000000 	nop
  4002b0:	000d0010 	0xd0010
  4002b4:	00000064 	0x64
  4002b8:	004113a4 	0x4113a4
  4002bc:	00000000 	nop
  4002c0:	000c0010 	0xc0010
  4002c4:	0000007d 	0x7d
  4002c8:	004113a8 	0x4113a8
  4002cc:	00000000 	nop
  4002d0:	000d0010 	0xd0010
  4002d4:	00000077 	0x77
  4002d8:	004113a4 	0x4113a4
  4002dc:	00000000 	nop
  4002e0:	000d0010 	0xd0010
  4002e4:	00000014 	0x14
  4002e8:	00401290 	0x401290
  4002ec:	00000000 	nop
  4002f0:	00000012 	mflo	zero
  4002f4:	00000010 	mfhi	zero
  4002f8:	00401280 	0x401280
  4002fc:	00000000 	nop
  400300:	00000012 	mflo	zero
  400304:	00000024 	and	zero,zero,zero
	...
  400310:	00000011 	mthi	zero
  400314:	00000018 	mult	zero,zero
  400318:	00401270 	tge	v0,zero,0x49
  40031c:	00000000 	nop
  400320:	00000012 	mflo	zero

Disassembly of section .dynstr:

00400324 <.dynstr>:
  400324:	73797300 	0x73797300
  400328:	6c6c6163 	0x6c6c6163
  40032c:	6972705f 	0x6972705f
  400330:	0066746e 	0x66746e
  400334:	00646461 	0x646461
  400338:	006c756d 	0x6c756d
  40033c:	5f746567 	0x5f746567
  400340:	6e756f63 	0x6e756f63
  400344:	00726574 	teq	v1,s2,0x195
  400348:	5f62696c 	0x5f62696c
  40034c:	6e756f63 	0x6e756f63
  400350:	00726574 	teq	v1,s2,0x195
  400354:	6d62696c 	0x6d62696c
  400358:	2e687461 	sltiu	t0,s3,29793
  40035c:	5f006f73 	bgtzl	t8,41c12c <_gp+0x2dbc>
  400360:	414e5944 	0x414e5944
  400364:	5f43494d 	0x5f43494d
  400368:	4b4e494c 	c2	0x14e494c
  40036c:	00474e49 	0x474e49
  400370:	4c525f5f 	0x4c525f5f
  400374:	414d5f44 	0x414d5f44
  400378:	665f0050 	0x665f0050
  40037c:	74786574 	jalx	1e195d0 <_gp+0x1a00260>
  400380:	64665f00 	0x64665f00
  400384:	00617461 	0x617461
  400388:	6164655f 	0x6164655f
  40038c:	5f006174 	bgtzl	t8,418960 <_end+0x75b8>
  400390:	7373625f 	udi15	k1,s3,t4,0x9
  400394:	6174735f 	0x6174735f
  400398:	5f007472 	bgtzl	t8,41d564 <_gp+0x41f4>
  40039c:	73736266 	0x73736266
  4003a0:	6e655f00 	0x6e655f00
  4003a4:	Address 0x00000000004003a4 is out of bounds.


Disassembly of section .text:

004003a8 <main>:
  4003a8:	3c1c0002 	lui	gp,0x2
  4003ac:	279c8fc8 	addiu	gp,gp,-28728
  4003b0:	0399e021 	addu	gp,gp,t9
  4003b4:	27bdffd8 	addiu	sp,sp,-40
  4003b8:	afbf0024 	sw	ra,36(sp)
  4003bc:	afb20020 	sw	s2,32(sp)
  4003c0:	afb1001c 	sw	s1,28(sp)
  4003c4:	afb00018 	sw	s0,24(sp)
  4003c8:	afbc0010 	sw	gp,16(sp)
  4003cc:	8f848018 	lw	a0,-32744(gp)
  4003d0:	248412b0 	addiu	a0,a0,4784
  4003d4:	8f99801c 	lw	t9,-32740(gp)
  4003d8:	0411012b 	bal	400888 <syscall_printf>
  4003dc:	00000000 	nop
  4003e0:	8fbc0010 	lw	gp,16(sp)
  4003e4:	24050004 	li	a1,4
  4003e8:	24040003 	li	a0,3
  4003ec:	8f998028 	lw	t9,-32728(gp)
  4003f0:	0320f809 	jalr	t9
  4003f4:	00000000 	nop
  4003f8:	8fbc0010 	lw	gp,16(sp)
  4003fc:	00408025 	move	s0,v0
  400400:	00402825 	move	a1,v0
  400404:	8f848018 	lw	a0,-32744(gp)
  400408:	248412d0 	addiu	a0,a0,4816
  40040c:	8f99801c 	lw	t9,-32740(gp)
  400410:	0411011d 	bal	400888 <syscall_printf>
  400414:	00000000 	nop
  400418:	8fbc0010 	lw	gp,16(sp)
  40041c:	24050006 	li	a1,6
  400420:	24040005 	li	a0,5
  400424:	8f998024 	lw	t9,-32732(gp)
  400428:	0320f809 	jalr	t9
  40042c:	00000000 	nop
  400430:	8fbc0010 	lw	gp,16(sp)
  400434:	00408825 	move	s1,v0
  400438:	00402825 	move	a1,v0
  40043c:	8f848018 	lw	a0,-32744(gp)
  400440:	248412e0 	addiu	a0,a0,4832
  400444:	8f99801c 	lw	t9,-32740(gp)
  400448:	0411010f 	bal	400888 <syscall_printf>
  40044c:	00000000 	nop
  400450:	8fbc0010 	lw	gp,16(sp)
  400454:	02202825 	move	a1,s1
  400458:	02002025 	move	a0,s0
  40045c:	8f998028 	lw	t9,-32728(gp)
  400460:	0320f809 	jalr	t9
  400464:	00000000 	nop
  400468:	8fbc0010 	lw	gp,16(sp)
  40046c:	00409025 	move	s2,v0
  400470:	00403825 	move	a3,v0
  400474:	02203025 	move	a2,s1
  400478:	02002825 	move	a1,s0
  40047c:	8f848018 	lw	a0,-32744(gp)
  400480:	248412f0 	addiu	a0,a0,4848
  400484:	8f99801c 	lw	t9,-32740(gp)
  400488:	041100ff 	bal	400888 <syscall_printf>
  40048c:	00000000 	nop
  400490:	8fbc0010 	lw	gp,16(sp)
  400494:	8f998030 	lw	t9,-32720(gp)
  400498:	0320f809 	jalr	t9
  40049c:	00000000 	nop
  4004a0:	8fbc0010 	lw	gp,16(sp)
  4004a4:	00402825 	move	a1,v0
  4004a8:	8f848018 	lw	a0,-32744(gp)
  4004ac:	24841304 	addiu	a0,a0,4868
  4004b0:	8f99801c 	lw	t9,-32740(gp)
  4004b4:	041100f4 	bal	400888 <syscall_printf>
  4004b8:	00000000 	nop
  4004bc:	8fbc0010 	lw	gp,16(sp)
  4004c0:	8f90802c 	lw	s0,-32724(gp)
  4004c4:	8e050000 	lw	a1,0(s0)
  4004c8:	8f848018 	lw	a0,-32744(gp)
  4004cc:	24841318 	addiu	a0,a0,4888
  4004d0:	8f99801c 	lw	t9,-32740(gp)
  4004d4:	041100ec 	bal	400888 <syscall_printf>
  4004d8:	00000000 	nop
  4004dc:	8fbc0010 	lw	gp,16(sp)
  4004e0:	240200c8 	li	v0,200
  4004e4:	ae020000 	sw	v0,0(s0)
  4004e8:	240500c8 	li	a1,200
  4004ec:	8f848018 	lw	a0,-32744(gp)
  4004f0:	24841334 	addiu	a0,a0,4916
  4004f4:	8f99801c 	lw	t9,-32740(gp)
  4004f8:	041100e3 	bal	400888 <syscall_printf>
  4004fc:	00000000 	nop
  400500:	8fbc0010 	lw	gp,16(sp)
  400504:	2405002a 	li	a1,42
  400508:	8f848018 	lw	a0,-32744(gp)
  40050c:	2484134c 	addiu	a0,a0,4940
  400510:	8f99801c 	lw	t9,-32740(gp)
  400514:	041100dc 	bal	400888 <syscall_printf>
  400518:	00000000 	nop
  40051c:	8fbc0010 	lw	gp,16(sp)
  400520:	8f848018 	lw	a0,-32744(gp)
  400524:	2484135c 	addiu	a0,a0,4956
  400528:	8f99801c 	lw	t9,-32740(gp)
  40052c:	041100d6 	bal	400888 <syscall_printf>
  400530:	00000000 	nop
  400534:	8fbc0010 	lw	gp,16(sp)
  400538:	02401025 	move	v0,s2
  40053c:	8fbf0024 	lw	ra,36(sp)
  400540:	8fb20020 	lw	s2,32(sp)
  400544:	8fb1001c 	lw	s1,28(sp)
  400548:	8fb00018 	lw	s0,24(sp)
  40054c:	03e00008 	jr	ra
  400550:	27bd0028 	addiu	sp,sp,40

00400554 <syscall_putchar>:
  400554:	27bdffe0 	addiu	sp,sp,-32
  400558:	afbf001c 	sw	ra,28(sp)
  40055c:	afa00014 	sw	zero,20(sp)
  400560:	afa00010 	sw	zero,16(sp)
  400564:	00003825 	move	a3,zero
  400568:	00003025 	move	a2,zero
  40056c:	00802825 	move	a1,a0
  400570:	0c1002ff 	jal	400bfc <msyscall>
  400574:	24042537 	li	a0,9527
  400578:	8fbf001c 	lw	ra,28(sp)
  40057c:	03e00008 	jr	ra
  400580:	27bd0020 	addiu	sp,sp,32

00400584 <syscall_getenvid>:
  400584:	27bdffe0 	addiu	sp,sp,-32
  400588:	afbf001c 	sw	ra,28(sp)
  40058c:	afa00014 	sw	zero,20(sp)
  400590:	afa00010 	sw	zero,16(sp)
  400594:	00003825 	move	a3,zero
  400598:	00003025 	move	a2,zero
  40059c:	00002825 	move	a1,zero
  4005a0:	0c1002ff 	jal	400bfc <msyscall>
  4005a4:	24042538 	li	a0,9528
  4005a8:	8fbf001c 	lw	ra,28(sp)
  4005ac:	03e00008 	jr	ra
  4005b0:	27bd0020 	addiu	sp,sp,32

004005b4 <syscall_get_shm>:
  4005b4:	27bdffe0 	addiu	sp,sp,-32
  4005b8:	afbf001c 	sw	ra,28(sp)
  4005bc:	afa00014 	sw	zero,20(sp)
  4005c0:	afa00010 	sw	zero,16(sp)
  4005c4:	00003825 	move	a3,zero
  4005c8:	00a03025 	move	a2,a1
  4005cc:	00802825 	move	a1,a0
  4005d0:	0c1002ff 	jal	400bfc <msyscall>
  4005d4:	24042539 	li	a0,9529
  4005d8:	8fbf001c 	lw	ra,28(sp)
  4005dc:	03e00008 	jr	ra
  4005e0:	27bd0020 	addiu	sp,sp,32

004005e4 <syscall_env_create>:
  4005e4:	27bdffe0 	addiu	sp,sp,-32
  4005e8:	afbf001c 	sw	ra,28(sp)
  4005ec:	afa00014 	sw	zero,20(sp)
  4005f0:	afa00010 	sw	zero,16(sp)
  4005f4:	00c03825 	move	a3,a2
  4005f8:	00a03025 	move	a2,a1
  4005fc:	00802825 	move	a1,a0
  400600:	0c1002ff 	jal	400bfc <msyscall>
  400604:	2404253a 	li	a0,9530
  400608:	8fbf001c 	lw	ra,28(sp)
  40060c:	03e00008 	jr	ra
  400610:	27bd0020 	addiu	sp,sp,32

00400614 <syscall_set_pgfault_handler>:
  400614:	27bdffe0 	addiu	sp,sp,-32
  400618:	afbf001c 	sw	ra,28(sp)
  40061c:	afa00014 	sw	zero,20(sp)
  400620:	afa00010 	sw	zero,16(sp)
  400624:	00c03825 	move	a3,a2
  400628:	00a03025 	move	a2,a1
  40062c:	00802825 	move	a1,a0
  400630:	0c1002ff 	jal	400bfc <msyscall>
  400634:	2404253b 	li	a0,9531
  400638:	8fbf001c 	lw	ra,28(sp)
  40063c:	03e00008 	jr	ra
  400640:	27bd0020 	addiu	sp,sp,32

00400644 <syscall_mem_alloc>:
  400644:	27bdffe0 	addiu	sp,sp,-32
  400648:	afbf001c 	sw	ra,28(sp)
  40064c:	afa00014 	sw	zero,20(sp)
  400650:	afa00010 	sw	zero,16(sp)
  400654:	00c03825 	move	a3,a2
  400658:	00a03025 	move	a2,a1
  40065c:	00802825 	move	a1,a0
  400660:	0c1002ff 	jal	400bfc <msyscall>
  400664:	2404253c 	li	a0,9532
  400668:	8fbf001c 	lw	ra,28(sp)
  40066c:	03e00008 	jr	ra
  400670:	27bd0020 	addiu	sp,sp,32

00400674 <syscall_mem_map>:
  400674:	27bdffe0 	addiu	sp,sp,-32
  400678:	afbf001c 	sw	ra,28(sp)
  40067c:	8fa20030 	lw	v0,48(sp)
  400680:	afa20014 	sw	v0,20(sp)
  400684:	afa70010 	sw	a3,16(sp)
  400688:	00c03825 	move	a3,a2
  40068c:	00a03025 	move	a2,a1
  400690:	00802825 	move	a1,a0
  400694:	0c1002ff 	jal	400bfc <msyscall>
  400698:	2404253d 	li	a0,9533
  40069c:	8fbf001c 	lw	ra,28(sp)
  4006a0:	03e00008 	jr	ra
  4006a4:	27bd0020 	addiu	sp,sp,32

004006a8 <syscall_mem_unmap>:
  4006a8:	27bdffe0 	addiu	sp,sp,-32
  4006ac:	afbf001c 	sw	ra,28(sp)
  4006b0:	afa00014 	sw	zero,20(sp)
  4006b4:	afa00010 	sw	zero,16(sp)
  4006b8:	00003825 	move	a3,zero
  4006bc:	00a03025 	move	a2,a1
  4006c0:	00802825 	move	a1,a0
  4006c4:	0c1002ff 	jal	400bfc <msyscall>
  4006c8:	2404253e 	li	a0,9534
  4006cc:	8fbf001c 	lw	ra,28(sp)
  4006d0:	03e00008 	jr	ra
  4006d4:	27bd0020 	addiu	sp,sp,32

004006d8 <syscall_pthread_create>:
  4006d8:	27bdffe0 	addiu	sp,sp,-32
  4006dc:	afbf001c 	sw	ra,28(sp)
  4006e0:	afa00014 	sw	zero,20(sp)
  4006e4:	afa00010 	sw	zero,16(sp)
  4006e8:	00003825 	move	a3,zero
  4006ec:	00a03025 	move	a2,a1
  4006f0:	00802825 	move	a1,a0
  4006f4:	0c1002ff 	jal	400bfc <msyscall>
  4006f8:	2404253f 	li	a0,9535
  4006fc:	8fbf001c 	lw	ra,28(sp)
  400700:	03e00008 	jr	ra
  400704:	27bd0020 	addiu	sp,sp,32

00400708 <syscall_set_env_status>:
  400708:	27bdffe0 	addiu	sp,sp,-32
  40070c:	afbf001c 	sw	ra,28(sp)
  400710:	afa00014 	sw	zero,20(sp)
  400714:	afa00010 	sw	zero,16(sp)
  400718:	00003825 	move	a3,zero
  40071c:	00a03025 	move	a2,a1
  400720:	00802825 	move	a1,a0
  400724:	0c1002ff 	jal	400bfc <msyscall>
  400728:	24042540 	li	a0,9536
  40072c:	8fbf001c 	lw	ra,28(sp)
  400730:	03e00008 	jr	ra
  400734:	27bd0020 	addiu	sp,sp,32

00400738 <syscall_set_trapframe>:
  400738:	27bdffe0 	addiu	sp,sp,-32
  40073c:	afbf001c 	sw	ra,28(sp)
  400740:	afa00014 	sw	zero,20(sp)
  400744:	afa00010 	sw	zero,16(sp)
  400748:	00003825 	move	a3,zero
  40074c:	00a03025 	move	a2,a1
  400750:	00802825 	move	a1,a0
  400754:	0c1002ff 	jal	400bfc <msyscall>
  400758:	24042541 	li	a0,9537
  40075c:	8fbf001c 	lw	ra,28(sp)
  400760:	03e00008 	jr	ra
  400764:	27bd0020 	addiu	sp,sp,32

00400768 <syscall_panic>:
  400768:	27bdffe0 	addiu	sp,sp,-32
  40076c:	afbf001c 	sw	ra,28(sp)
  400770:	afa00014 	sw	zero,20(sp)
  400774:	afa00010 	sw	zero,16(sp)
  400778:	00003825 	move	a3,zero
  40077c:	00003025 	move	a2,zero
  400780:	00802825 	move	a1,a0
  400784:	0c1002ff 	jal	400bfc <msyscall>
  400788:	24042542 	li	a0,9538
  40078c:	8fbf001c 	lw	ra,28(sp)
  400790:	03e00008 	jr	ra
  400794:	27bd0020 	addiu	sp,sp,32

00400798 <syscall_ipc_can_send>:
  400798:	27bdffe0 	addiu	sp,sp,-32
  40079c:	afbf001c 	sw	ra,28(sp)
  4007a0:	afa00014 	sw	zero,20(sp)
  4007a4:	afa70010 	sw	a3,16(sp)
  4007a8:	00c03825 	move	a3,a2
  4007ac:	00a03025 	move	a2,a1
  4007b0:	00802825 	move	a1,a0
  4007b4:	0c1002ff 	jal	400bfc <msyscall>
  4007b8:	24042543 	li	a0,9539
  4007bc:	8fbf001c 	lw	ra,28(sp)
  4007c0:	03e00008 	jr	ra
  4007c4:	27bd0020 	addiu	sp,sp,32

004007c8 <syscall_ipc_recv>:
  4007c8:	27bdffe0 	addiu	sp,sp,-32
  4007cc:	afbf001c 	sw	ra,28(sp)
  4007d0:	afa00014 	sw	zero,20(sp)
  4007d4:	afa00010 	sw	zero,16(sp)
  4007d8:	00003825 	move	a3,zero
  4007dc:	00003025 	move	a2,zero
  4007e0:	00802825 	move	a1,a0
  4007e4:	0c1002ff 	jal	400bfc <msyscall>
  4007e8:	24042544 	li	a0,9540
  4007ec:	8fbf001c 	lw	ra,28(sp)
  4007f0:	03e00008 	jr	ra
  4007f4:	27bd0020 	addiu	sp,sp,32

004007f8 <syscall_free_myself>:
  4007f8:	27bdffe0 	addiu	sp,sp,-32
  4007fc:	afbf001c 	sw	ra,28(sp)
  400800:	afa00014 	sw	zero,20(sp)
  400804:	afa00010 	sw	zero,16(sp)
  400808:	00003825 	move	a3,zero
  40080c:	00003025 	move	a2,zero
  400810:	00002825 	move	a1,zero
  400814:	0c1002ff 	jal	400bfc <msyscall>
  400818:	24042545 	li	a0,9541
  40081c:	8fbf001c 	lw	ra,28(sp)
  400820:	03e00008 	jr	ra
  400824:	27bd0020 	addiu	sp,sp,32

00400828 <syscall_write_dev>:
  400828:	27bdffe0 	addiu	sp,sp,-32
  40082c:	afbf001c 	sw	ra,28(sp)
  400830:	afa00014 	sw	zero,20(sp)
  400834:	afa00010 	sw	zero,16(sp)
  400838:	00c03825 	move	a3,a2
  40083c:	00a03025 	move	a2,a1
  400840:	00802825 	move	a1,a0
  400844:	0c1002ff 	jal	400bfc <msyscall>
  400848:	24042546 	li	a0,9542
  40084c:	8fbf001c 	lw	ra,28(sp)
  400850:	03e00008 	jr	ra
  400854:	27bd0020 	addiu	sp,sp,32

00400858 <syscall_read_dev>:
  400858:	27bdffe0 	addiu	sp,sp,-32
  40085c:	afbf001c 	sw	ra,28(sp)
  400860:	afa00014 	sw	zero,20(sp)
  400864:	afa00010 	sw	zero,16(sp)
  400868:	00c03825 	move	a3,a2
  40086c:	00a03025 	move	a2,a1
  400870:	00802825 	move	a1,a0
  400874:	0c1002ff 	jal	400bfc <msyscall>
  400878:	24042547 	li	a0,9543
  40087c:	8fbf001c 	lw	ra,28(sp)
  400880:	03e00008 	jr	ra
  400884:	27bd0020 	addiu	sp,sp,32

00400888 <syscall_printf>:
  400888:	27bdffd8 	addiu	sp,sp,-40
  40088c:	afbf0024 	sw	ra,36(sp)
  400890:	afa5002c 	sw	a1,44(sp)
  400894:	afa60030 	sw	a2,48(sp)
  400898:	afa70034 	sw	a3,52(sp)
  40089c:	27a2002c 	addiu	v0,sp,44
  4008a0:	afa20018 	sw	v0,24(sp)
  4008a4:	afa00014 	sw	zero,20(sp)
  4008a8:	afa00010 	sw	zero,16(sp)
  4008ac:	00003825 	move	a3,zero
  4008b0:	27a60018 	addiu	a2,sp,24
  4008b4:	00802825 	move	a1,a0
  4008b8:	0c1002ff 	jal	400bfc <msyscall>
  4008bc:	24042548 	li	a0,9544
  4008c0:	8fbf0024 	lw	ra,36(sp)
  4008c4:	03e00008 	jr	ra
  4008c8:	27bd0028 	addiu	sp,sp,40

004008cc <syscall_set_leds>:
  4008cc:	27bdffe0 	addiu	sp,sp,-32
  4008d0:	afbf001c 	sw	ra,28(sp)
  4008d4:	afa00014 	sw	zero,20(sp)
  4008d8:	afa00010 	sw	zero,16(sp)
  4008dc:	00003825 	move	a3,zero
  4008e0:	00003025 	move	a2,zero
  4008e4:	00802825 	move	a1,a0
  4008e8:	0c1002ff 	jal	400bfc <msyscall>
  4008ec:	24042549 	li	a0,9545
  4008f0:	8fbf001c 	lw	ra,28(sp)
  4008f4:	03e00008 	jr	ra
  4008f8:	27bd0020 	addiu	sp,sp,32

004008fc <syscall_get_switchs>:
  4008fc:	27bdffe0 	addiu	sp,sp,-32
  400900:	afbf001c 	sw	ra,28(sp)
  400904:	afa00014 	sw	zero,20(sp)
  400908:	afa00010 	sw	zero,16(sp)
  40090c:	00003825 	move	a3,zero
  400910:	00003025 	move	a2,zero
  400914:	00002825 	move	a1,zero
  400918:	0c1002ff 	jal	400bfc <msyscall>
  40091c:	2404254a 	li	a0,9546
  400920:	8fbf001c 	lw	ra,28(sp)
  400924:	03e00008 	jr	ra
  400928:	27bd0020 	addiu	sp,sp,32

0040092c <syscall_readline>:
  40092c:	27bdffe0 	addiu	sp,sp,-32
  400930:	afbf001c 	sw	ra,28(sp)
  400934:	afa00014 	sw	zero,20(sp)
  400938:	afa00010 	sw	zero,16(sp)
  40093c:	00c03825 	move	a3,a2
  400940:	00a03025 	move	a2,a1
  400944:	00802825 	move	a1,a0
  400948:	0c1002ff 	jal	400bfc <msyscall>
  40094c:	2404254b 	li	a0,9547
  400950:	8fbf001c 	lw	ra,28(sp)
  400954:	03e00008 	jr	ra
  400958:	27bd0020 	addiu	sp,sp,32

0040095c <syscall_env_create_1>:
  40095c:	27bdffe0 	addiu	sp,sp,-32
  400960:	afbf001c 	sw	ra,28(sp)
  400964:	afa00014 	sw	zero,20(sp)
  400968:	afa00010 	sw	zero,16(sp)
  40096c:	00003825 	move	a3,zero
  400970:	00003025 	move	a2,zero
  400974:	00802825 	move	a1,a0
  400978:	0c1002ff 	jal	400bfc <msyscall>
  40097c:	2404254c 	li	a0,9548
  400980:	8fbf001c 	lw	ra,28(sp)
  400984:	03e00008 	jr	ra
  400988:	27bd0020 	addiu	sp,sp,32

0040098c <syscall_mkdir>:
  40098c:	27bdffe0 	addiu	sp,sp,-32
  400990:	afbf001c 	sw	ra,28(sp)
  400994:	afa00014 	sw	zero,20(sp)
  400998:	afa00010 	sw	zero,16(sp)
  40099c:	00003825 	move	a3,zero
  4009a0:	00003025 	move	a2,zero
  4009a4:	00802825 	move	a1,a0
  4009a8:	0c1002ff 	jal	400bfc <msyscall>
  4009ac:	2404254d 	li	a0,9549
  4009b0:	8fbf001c 	lw	ra,28(sp)
  4009b4:	03e00008 	jr	ra
  4009b8:	27bd0020 	addiu	sp,sp,32

004009bc <syscall_cd>:
  4009bc:	27bdffe0 	addiu	sp,sp,-32
  4009c0:	afbf001c 	sw	ra,28(sp)
  4009c4:	afa00014 	sw	zero,20(sp)
  4009c8:	afa00010 	sw	zero,16(sp)
  4009cc:	00003825 	move	a3,zero
  4009d0:	00003025 	move	a2,zero
  4009d4:	00802825 	move	a1,a0
  4009d8:	0c1002ff 	jal	400bfc <msyscall>
  4009dc:	2404254e 	li	a0,9550
  4009e0:	8fbf001c 	lw	ra,28(sp)
  4009e4:	03e00008 	jr	ra
  4009e8:	27bd0020 	addiu	sp,sp,32

004009ec <syscall_fcraete>:
  4009ec:	27bdffe0 	addiu	sp,sp,-32
  4009f0:	afbf001c 	sw	ra,28(sp)
  4009f4:	afa00014 	sw	zero,20(sp)
  4009f8:	afa00010 	sw	zero,16(sp)
  4009fc:	00003825 	move	a3,zero
  400a00:	00003025 	move	a2,zero
  400a04:	00802825 	move	a1,a0
  400a08:	0c1002ff 	jal	400bfc <msyscall>
  400a0c:	2404254f 	li	a0,9551
  400a10:	8fbf001c 	lw	ra,28(sp)
  400a14:	03e00008 	jr	ra
  400a18:	27bd0020 	addiu	sp,sp,32

00400a1c <syscall_fread>:
  400a1c:	27bdffe0 	addiu	sp,sp,-32
  400a20:	afbf001c 	sw	ra,28(sp)
  400a24:	afa00014 	sw	zero,20(sp)
  400a28:	afa00010 	sw	zero,16(sp)
  400a2c:	00003825 	move	a3,zero
  400a30:	00003025 	move	a2,zero
  400a34:	00802825 	move	a1,a0
  400a38:	0c1002ff 	jal	400bfc <msyscall>
  400a3c:	24042550 	li	a0,9552
  400a40:	8fbf001c 	lw	ra,28(sp)
  400a44:	03e00008 	jr	ra
  400a48:	27bd0020 	addiu	sp,sp,32

00400a4c <syscall_fwrite>:
  400a4c:	27bdffe0 	addiu	sp,sp,-32
  400a50:	afbf001c 	sw	ra,28(sp)
  400a54:	afa00014 	sw	zero,20(sp)
  400a58:	afa00010 	sw	zero,16(sp)
  400a5c:	00003825 	move	a3,zero
  400a60:	00a03025 	move	a2,a1
  400a64:	00802825 	move	a1,a0
  400a68:	0c1002ff 	jal	400bfc <msyscall>
  400a6c:	24042551 	li	a0,9553
  400a70:	8fbf001c 	lw	ra,28(sp)
  400a74:	03e00008 	jr	ra
  400a78:	27bd0020 	addiu	sp,sp,32

00400a7c <syscall_ls>:
  400a7c:	27bdffe0 	addiu	sp,sp,-32
  400a80:	afbf001c 	sw	ra,28(sp)
  400a84:	afa00014 	sw	zero,20(sp)
  400a88:	afa00010 	sw	zero,16(sp)
  400a8c:	00003825 	move	a3,zero
  400a90:	00003025 	move	a2,zero
  400a94:	00002825 	move	a1,zero
  400a98:	0c1002ff 	jal	400bfc <msyscall>
  400a9c:	24042552 	li	a0,9554
  400aa0:	8fbf001c 	lw	ra,28(sp)
  400aa4:	03e00008 	jr	ra
  400aa8:	27bd0020 	addiu	sp,sp,32

00400aac <syscall_rm>:
  400aac:	27bdffe0 	addiu	sp,sp,-32
  400ab0:	afbf001c 	sw	ra,28(sp)
  400ab4:	afa00014 	sw	zero,20(sp)
  400ab8:	afa00010 	sw	zero,16(sp)
  400abc:	00003825 	move	a3,zero
  400ac0:	00003025 	move	a2,zero
  400ac4:	00802825 	move	a1,a0
  400ac8:	0c1002ff 	jal	400bfc <msyscall>
  400acc:	24042553 	li	a0,9555
  400ad0:	8fbf001c 	lw	ra,28(sp)
  400ad4:	03e00008 	jr	ra
  400ad8:	27bd0020 	addiu	sp,sp,32

00400adc <syscall_rt_write_byte>:
  400adc:	27bdffe0 	addiu	sp,sp,-32
  400ae0:	afbf001c 	sw	ra,28(sp)
  400ae4:	afa00014 	sw	zero,20(sp)
  400ae8:	afa00010 	sw	zero,16(sp)
  400aec:	00c03825 	move	a3,a2
  400af0:	00a03025 	move	a2,a1
  400af4:	00802825 	move	a1,a0
  400af8:	0c1002ff 	jal	400bfc <msyscall>
  400afc:	24042554 	li	a0,9556
  400b00:	8fbf001c 	lw	ra,28(sp)
  400b04:	03e00008 	jr	ra
  400b08:	27bd0020 	addiu	sp,sp,32

00400b0c <syscall_rt_require_device>:
  400b0c:	27bdffe0 	addiu	sp,sp,-32
  400b10:	afbf001c 	sw	ra,28(sp)
  400b14:	afa00014 	sw	zero,20(sp)
  400b18:	afa00010 	sw	zero,16(sp)
  400b1c:	00003825 	move	a3,zero
  400b20:	00a03025 	move	a2,a1
  400b24:	00802825 	move	a1,a0
  400b28:	0c1002ff 	jal	400bfc <msyscall>
  400b2c:	24042555 	li	a0,9557
  400b30:	8fbf001c 	lw	ra,28(sp)
  400b34:	03e00008 	jr	ra
  400b38:	27bd0020 	addiu	sp,sp,32

00400b3c <syscall_rt_release_device>:
  400b3c:	27bdffe0 	addiu	sp,sp,-32
  400b40:	afbf001c 	sw	ra,28(sp)
  400b44:	afa00014 	sw	zero,20(sp)
  400b48:	afa00010 	sw	zero,16(sp)
  400b4c:	00003825 	move	a3,zero
  400b50:	00a03025 	move	a2,a1
  400b54:	00802825 	move	a1,a0
  400b58:	0c1002ff 	jal	400bfc <msyscall>
  400b5c:	24042556 	li	a0,9558
  400b60:	8fbf001c 	lw	ra,28(sp)
  400b64:	03e00008 	jr	ra
  400b68:	27bd0020 	addiu	sp,sp,32

00400b6c <syscall_rt_claim_device>:
  400b6c:	27bdffe0 	addiu	sp,sp,-32
  400b70:	afbf001c 	sw	ra,28(sp)
  400b74:	afa00014 	sw	zero,20(sp)
  400b78:	afa00010 	sw	zero,16(sp)
  400b7c:	00003825 	move	a3,zero
  400b80:	00003025 	move	a2,zero
  400b84:	00802825 	move	a1,a0
  400b88:	0c1002ff 	jal	400bfc <msyscall>
  400b8c:	24042557 	li	a0,9559
  400b90:	8fbf001c 	lw	ra,28(sp)
  400b94:	03e00008 	jr	ra
  400b98:	27bd0020 	addiu	sp,sp,32

00400b9c <syscall_rt_write_by_num>:
  400b9c:	27bdffe0 	addiu	sp,sp,-32
  400ba0:	afbf001c 	sw	ra,28(sp)
  400ba4:	afa00014 	sw	zero,20(sp)
  400ba8:	afa00010 	sw	zero,16(sp)
  400bac:	00c03825 	move	a3,a2
  400bb0:	00a03025 	move	a2,a1
  400bb4:	00802825 	move	a1,a0
  400bb8:	0c1002ff 	jal	400bfc <msyscall>
  400bbc:	24042558 	li	a0,9560
  400bc0:	8fbf001c 	lw	ra,28(sp)
  400bc4:	03e00008 	jr	ra
  400bc8:	27bd0020 	addiu	sp,sp,32

00400bcc <syscall_rt_exit>:
  400bcc:	27bdffe0 	addiu	sp,sp,-32
  400bd0:	afbf001c 	sw	ra,28(sp)
  400bd4:	afa00014 	sw	zero,20(sp)
  400bd8:	afa00010 	sw	zero,16(sp)
  400bdc:	00003825 	move	a3,zero
  400be0:	00003025 	move	a2,zero
  400be4:	00002825 	move	a1,zero
  400be8:	0c1002ff 	jal	400bfc <msyscall>
  400bec:	24042559 	li	a0,9561
  400bf0:	8fbf001c 	lw	ra,28(sp)
  400bf4:	03e00008 	jr	ra
  400bf8:	27bd0020 	addiu	sp,sp,32

00400bfc <msyscall>:
  400bfc:	00000000 	nop
  400c00:	000000c0 	ehb
  400c04:	00000000 	nop
  400c08:	0000000c 	syscall
  400c0c:	00000000 	nop
  400c10:	03e00008 	jr	ra
  400c14:	00000000 	nop
  400c18:	00000000 	nop

00400c1c <strlen>:
  400c1c:	90820000 	lbu	v0,0(a0)
  400c20:	10400008 	beqz	v0,400c44 <strlen+0x28>
  400c24:	00000000 	nop
  400c28:	00001025 	move	v0,zero
  400c2c:	24840001 	addiu	a0,a0,1
  400c30:	90830000 	lbu	v1,0(a0)
  400c34:	1460fffd 	bnez	v1,400c2c <strlen+0x10>
  400c38:	24420001 	addiu	v0,v0,1
  400c3c:	03e00008 	jr	ra
  400c40:	00000000 	nop
  400c44:	03e00008 	jr	ra
  400c48:	00001025 	move	v0,zero

00400c4c <strnlen>:
  400c4c:	10a0000d 	beqz	a1,400c84 <strnlen+0x38>
  400c50:	00000000 	nop
  400c54:	90820000 	lbu	v0,0(a0)
  400c58:	1040000c 	beqz	v0,400c8c <strnlen+0x40>
  400c5c:	00852821 	addu	a1,a0,a1
  400c60:	00001025 	move	v0,zero
  400c64:	24840001 	addiu	a0,a0,1
  400c68:	10a40004 	beq	a1,a0,400c7c <strnlen+0x30>
  400c6c:	24420001 	addiu	v0,v0,1
  400c70:	90830000 	lbu	v1,0(a0)
  400c74:	1460fffc 	bnez	v1,400c68 <strnlen+0x1c>
  400c78:	24840001 	addiu	a0,a0,1
  400c7c:	03e00008 	jr	ra
  400c80:	00000000 	nop
  400c84:	03e00008 	jr	ra
  400c88:	00001025 	move	v0,zero
  400c8c:	00001025 	move	v0,zero
  400c90:	03e00008 	jr	ra
  400c94:	00000000 	nop

00400c98 <strcpy>:
  400c98:	00801025 	move	v0,a0
  400c9c:	00801825 	move	v1,a0
  400ca0:	24630001 	addiu	v1,v1,1
  400ca4:	24a50001 	addiu	a1,a1,1
  400ca8:	90a6ffff 	lbu	a2,-1(a1)
  400cac:	14c0fffc 	bnez	a2,400ca0 <strcpy+0x8>
  400cb0:	a066ffff 	sb	a2,-1(v1)
  400cb4:	03e00008 	jr	ra
  400cb8:	00000000 	nop

00400cbc <strcat>:
  400cbc:	27bdffe0 	addiu	sp,sp,-32
  400cc0:	afbf001c 	sw	ra,28(sp)
  400cc4:	afb10018 	sw	s1,24(sp)
  400cc8:	afb00014 	sw	s0,20(sp)
  400ccc:	00808025 	move	s0,a0
  400cd0:	0c100307 	jal	400c1c <strlen>
  400cd4:	00a08825 	move	s1,a1
  400cd8:	02202825 	move	a1,s1
  400cdc:	0c100326 	jal	400c98 <strcpy>
  400ce0:	02022021 	addu	a0,s0,v0
  400ce4:	02001025 	move	v0,s0
  400ce8:	8fbf001c 	lw	ra,28(sp)
  400cec:	8fb10018 	lw	s1,24(sp)
  400cf0:	8fb00014 	lw	s0,20(sp)
  400cf4:	03e00008 	jr	ra
  400cf8:	27bd0020 	addiu	sp,sp,32

00400cfc <strncpy>:
  400cfc:	10c0000a 	beqz	a2,400d28 <strncpy+0x2c>
  400d00:	00801025 	move	v0,a0
  400d04:	00863021 	addu	a2,a0,a2
  400d08:	00801825 	move	v1,a0
  400d0c:	24630001 	addiu	v1,v1,1
  400d10:	90a70000 	lbu	a3,0(a1)
  400d14:	a067ffff 	sb	a3,-1(v1)
  400d18:	90a70000 	lbu	a3,0(a1)
  400d1c:	0007382b 	sltu	a3,zero,a3
  400d20:	14c3fffa 	bne	a2,v1,400d0c <strncpy+0x10>
  400d24:	00a72821 	addu	a1,a1,a3
  400d28:	03e00008 	jr	ra
  400d2c:	00000000 	nop

00400d30 <strlcpy>:
  400d30:	10c00010 	beqz	a2,400d74 <strlcpy+0x44>
  400d34:	00801025 	move	v0,a0
  400d38:	24c6ffff 	addiu	a2,a2,-1
  400d3c:	50c0000d 	beqzl	a2,400d74 <strlcpy+0x44>
  400d40:	a0400000 	sb	zero,0(v0)
  400d44:	90a30000 	lbu	v1,0(a1)
  400d48:	5060000a 	beqzl	v1,400d74 <strlcpy+0x44>
  400d4c:	a0400000 	sb	zero,0(v0)
  400d50:	24420001 	addiu	v0,v0,1
  400d54:	24a50001 	addiu	a1,a1,1
  400d58:	24c6ffff 	addiu	a2,a2,-1
  400d5c:	10c00004 	beqz	a2,400d70 <strlcpy+0x40>
  400d60:	a043ffff 	sb	v1,-1(v0)
  400d64:	90a30000 	lbu	v1,0(a1)
  400d68:	5460fffa 	bnezl	v1,400d54 <strlcpy+0x24>
  400d6c:	24420001 	addiu	v0,v0,1
  400d70:	a0400000 	sb	zero,0(v0)
  400d74:	03e00008 	jr	ra
  400d78:	00441023 	subu	v0,v0,a0
  400d7c:	1000fffc 	b	400d70 <strlcpy+0x40>
  400d80:	00801025 	move	v0,a0

00400d84 <strcmp>:
  400d84:	90820000 	lbu	v0,0(a0)
  400d88:	1040000b 	beqz	v0,400db8 <strcmp+0x34>
  400d8c:	90a30000 	lbu	v1,0(a1)
  400d90:	14620009 	bne	v1,v0,400db8 <strcmp+0x34>
  400d94:	00000000 	nop
  400d98:	24840001 	addiu	a0,a0,1
  400d9c:	90820000 	lbu	v0,0(a0)
  400da0:	10400004 	beqz	v0,400db4 <strcmp+0x30>
  400da4:	24a50001 	addiu	a1,a1,1
  400da8:	90a30000 	lbu	v1,0(a1)
  400dac:	5062fffb 	beql	v1,v0,400d9c <strcmp+0x18>
  400db0:	24840001 	addiu	a0,a0,1
  400db4:	90a30000 	lbu	v1,0(a1)
  400db8:	03e00008 	jr	ra
  400dbc:	00431023 	subu	v0,v0,v1

00400dc0 <strncmp>:
  400dc0:	10c00013 	beqz	a2,400e10 <strncmp+0x50>
  400dc4:	00000000 	nop
  400dc8:	90820000 	lbu	v0,0(a0)
  400dcc:	1040000e 	beqz	v0,400e08 <strncmp+0x48>
  400dd0:	90a30000 	lbu	v1,0(a1)
  400dd4:	1462000c 	bne	v1,v0,400e08 <strncmp+0x48>
  400dd8:	00000000 	nop
  400ddc:	00863021 	addu	a2,a0,a2
  400de0:	24840001 	addiu	a0,a0,1
  400de4:	1086000c 	beq	a0,a2,400e18 <strncmp+0x58>
  400de8:	24a50001 	addiu	a1,a1,1
  400dec:	90820000 	lbu	v0,0(a0)
  400df0:	10400005 	beqz	v0,400e08 <strncmp+0x48>
  400df4:	90a30000 	lbu	v1,0(a1)
  400df8:	5062fffa 	beql	v1,v0,400de4 <strncmp+0x24>
  400dfc:	24840001 	addiu	a0,a0,1
  400e00:	90820000 	lbu	v0,0(a0)
  400e04:	90a30000 	lbu	v1,0(a1)
  400e08:	03e00008 	jr	ra
  400e0c:	00431023 	subu	v0,v0,v1
  400e10:	03e00008 	jr	ra
  400e14:	00001025 	move	v0,zero
  400e18:	03e00008 	jr	ra
  400e1c:	00001025 	move	v0,zero

00400e20 <strchr>:
  400e20:	90820000 	lbu	v0,0(a0)
  400e24:	1040000d 	beqz	v0,400e5c <strchr+0x3c>
  400e28:	00000000 	nop
  400e2c:	10a2000d 	beq	a1,v0,400e64 <strchr+0x44>
  400e30:	00000000 	nop
  400e34:	24840001 	addiu	a0,a0,1
  400e38:	90820000 	lbu	v0,0(a0)
  400e3c:	10400005 	beqz	v0,400e54 <strchr+0x34>
  400e40:	00000000 	nop
  400e44:	5445fffc 	bnel	v0,a1,400e38 <strchr+0x18>
  400e48:	24840001 	addiu	a0,a0,1
  400e4c:	03e00008 	jr	ra
  400e50:	00801025 	move	v0,a0
  400e54:	03e00008 	jr	ra
  400e58:	00000000 	nop
  400e5c:	03e00008 	jr	ra
  400e60:	00001025 	move	v0,zero
  400e64:	03e00008 	jr	ra
  400e68:	00801025 	move	v0,a0

00400e6c <strfind>:
  400e6c:	90830000 	lbu	v1,0(a0)
  400e70:	10600009 	beqz	v1,400e98 <strfind+0x2c>
  400e74:	00801025 	move	v0,a0
  400e78:	10a30009 	beq	a1,v1,400ea0 <strfind+0x34>
  400e7c:	00000000 	nop
  400e80:	24420001 	addiu	v0,v0,1
  400e84:	90430000 	lbu	v1,0(v0)
  400e88:	10600005 	beqz	v1,400ea0 <strfind+0x34>
  400e8c:	00000000 	nop
  400e90:	5465fffc 	bnel	v1,a1,400e84 <strfind+0x18>
  400e94:	24420001 	addiu	v0,v0,1
  400e98:	03e00008 	jr	ra
  400e9c:	00000000 	nop
  400ea0:	03e00008 	jr	ra
  400ea4:	00000000 	nop

00400ea8 <memset>:
  400ea8:	24c3ffff 	addiu	v1,a2,-1
  400eac:	04600006 	bltz	v1,400ec8 <memset+0x20>
  400eb0:	00801025 	move	v0,a0
  400eb4:	00863021 	addu	a2,a0,a2
  400eb8:	00801825 	move	v1,a0
  400ebc:	24630001 	addiu	v1,v1,1
  400ec0:	14c3fffe 	bne	a2,v1,400ebc <memset+0x14>
  400ec4:	a065ffff 	sb	a1,-1(v1)
  400ec8:	03e00008 	jr	ra
  400ecc:	00000000 	nop

00400ed0 <memmove>:
  400ed0:	00a4182b 	sltu	v1,a1,a0
  400ed4:	10600005 	beqz	v1,400eec <memmove+0x1c>
  400ed8:	00801025 	move	v0,a0
  400edc:	00a61821 	addu	v1,a1,a2
  400ee0:	0083202b 	sltu	a0,a0,v1
  400ee4:	1480000c 	bnez	a0,400f18 <memmove+0x48>
  400ee8:	00000000 	nop
  400eec:	10c00011 	beqz	a2,400f34 <memmove+0x64>
  400ef0:	00000000 	nop
  400ef4:	00a63021 	addu	a2,a1,a2
  400ef8:	00401825 	move	v1,v0
  400efc:	24630001 	addiu	v1,v1,1
  400f00:	24a50001 	addiu	a1,a1,1
  400f04:	90a7ffff 	lbu	a3,-1(a1)
  400f08:	14a6fffc 	bne	a1,a2,400efc <memmove+0x2c>
  400f0c:	a067ffff 	sb	a3,-1(v1)
  400f10:	03e00008 	jr	ra
  400f14:	00000000 	nop
  400f18:	10c0fffd 	beqz	a2,400f10 <memmove+0x40>
  400f1c:	00463821 	addu	a3,v0,a2
  400f20:	24e7ffff 	addiu	a3,a3,-1
  400f24:	2463ffff 	addiu	v1,v1,-1
  400f28:	90660000 	lbu	a2,0(v1)
  400f2c:	14a3fffc 	bne	a1,v1,400f20 <memmove+0x50>
  400f30:	a0e60000 	sb	a2,0(a3)
  400f34:	03e00008 	jr	ra
  400f38:	00000000 	nop

00400f3c <memcpy>:
  400f3c:	27bdffe8 	addiu	sp,sp,-24
  400f40:	afbf0014 	sw	ra,20(sp)
  400f44:	0c1003b4 	jal	400ed0 <memmove>
  400f48:	00000000 	nop
  400f4c:	8fbf0014 	lw	ra,20(sp)
  400f50:	03e00008 	jr	ra
  400f54:	27bd0018 	addiu	sp,sp,24

00400f58 <memcmp>:
  400f58:	10c00010 	beqz	a2,400f9c <memcmp+0x44>
  400f5c:	00000000 	nop
  400f60:	90820000 	lbu	v0,0(a0)
  400f64:	90a30000 	lbu	v1,0(a1)
  400f68:	14430008 	bne	v0,v1,400f8c <memcmp+0x34>
  400f6c:	00863021 	addu	a2,a0,a2
  400f70:	24840001 	addiu	a0,a0,1
  400f74:	10c40007 	beq	a2,a0,400f94 <memcmp+0x3c>
  400f78:	24a50001 	addiu	a1,a1,1
  400f7c:	90820000 	lbu	v0,0(a0)
  400f80:	90a30000 	lbu	v1,0(a1)
  400f84:	5043fffb 	beql	v0,v1,400f74 <memcmp+0x1c>
  400f88:	24840001 	addiu	a0,a0,1
  400f8c:	03e00008 	jr	ra
  400f90:	00431023 	subu	v0,v0,v1
  400f94:	03e00008 	jr	ra
  400f98:	00001025 	move	v0,zero
  400f9c:	03e00008 	jr	ra
  400fa0:	00001025 	move	v0,zero

00400fa4 <memfind>:
  400fa4:	00863021 	addu	a2,a0,a2
  400fa8:	0086182b 	sltu	v1,a0,a2
  400fac:	1060000b 	beqz	v1,400fdc <memfind+0x38>
  400fb0:	00801025 	move	v0,a0
  400fb4:	30a500ff 	andi	a1,a1,0xff
  400fb8:	90830000 	lbu	v1,0(a0)
  400fbc:	10650009 	beq	v1,a1,400fe4 <memfind+0x40>
  400fc0:	00000000 	nop
  400fc4:	24420001 	addiu	v0,v0,1
  400fc8:	10c20006 	beq	a2,v0,400fe4 <memfind+0x40>
  400fcc:	00000000 	nop
  400fd0:	90430000 	lbu	v1,0(v0)
  400fd4:	5465fffc 	bnel	v1,a1,400fc8 <memfind+0x24>
  400fd8:	24420001 	addiu	v0,v0,1
  400fdc:	03e00008 	jr	ra
  400fe0:	00000000 	nop
  400fe4:	03e00008 	jr	ra
  400fe8:	00000000 	nop

00400fec <strtol>:
  400fec:	24030020 	li	v1,32
  400ff0:	24070009 	li	a3,9
  400ff4:	90820000 	lbu	v0,0(a0)
  400ff8:	5043fffe 	beql	v0,v1,400ff4 <strtol+0x8>
  400ffc:	24840001 	addiu	a0,a0,1
  401000:	5047fffc 	beql	v0,a3,400ff4 <strtol+0x8>
  401004:	24840001 	addiu	a0,a0,1
  401008:	2403002b 	li	v1,43
  40100c:	1043000e 	beq	v0,v1,401048 <strtol+0x5c>
  401010:	2403002d 	li	v1,45
  401014:	1043000f 	beq	v0,v1,401054 <strtol+0x68>
  401018:	00004025 	move	t0,zero
  40101c:	00c01025 	move	v0,a2
  401020:	7c022104 	ins	v0,zero,0x4,0x1
  401024:	14400023 	bnez	v0,4010b4 <strtol+0xc8>
  401028:	00001025 	move	v0,zero
  40102c:	90830000 	lbu	v1,0(a0)
  401030:	24020030 	li	v0,48
  401034:	1062000a 	beq	v1,v0,401060 <strtol+0x74>
  401038:	2402000a 	li	v0,10
  40103c:	0046300a 	movz	a2,v0,a2
  401040:	1000001c 	b	4010b4 <strtol+0xc8>
  401044:	00001025 	move	v0,zero
  401048:	24840001 	addiu	a0,a0,1
  40104c:	1000fff3 	b	40101c <strtol+0x30>
  401050:	00004025 	move	t0,zero
  401054:	24840001 	addiu	a0,a0,1
  401058:	1000fff0 	b	40101c <strtol+0x30>
  40105c:	24080001 	li	t0,1
  401060:	90830001 	lbu	v1,1(a0)
  401064:	24020078 	li	v0,120
  401068:	50620006 	beql	v1,v0,401084 <strtol+0x98>
  40106c:	24840002 	addiu	a0,a0,2
  401070:	54c00010 	bnezl	a2,4010b4 <strtol+0xc8>
  401074:	00001025 	move	v0,zero
  401078:	24840001 	addiu	a0,a0,1
  40107c:	1000fff0 	b	401040 <strtol+0x54>
  401080:	24060008 	li	a2,8
  401084:	1000ffee 	b	401040 <strtol+0x54>
  401088:	24060010 	li	a2,16
  40108c:	30e700ff 	andi	a3,a3,0xff
  401090:	2ce7001a 	sltiu	a3,a3,26
  401094:	10e0000f 	beqz	a3,4010d4 <strtol+0xe8>
  401098:	2467ffbf 	addiu	a3,v1,-65
  40109c:	2463ffa9 	addiu	v1,v1,-87
  4010a0:	0066382a 	slt	a3,v1,a2
  4010a4:	10e0000f 	beqz	a3,4010e4 <strtol+0xf8>
  4010a8:	70463802 	mul	a3,v0,a2
  4010ac:	24840001 	addiu	a0,a0,1
  4010b0:	00e31021 	addu	v0,a3,v1
  4010b4:	90830000 	lbu	v1,0(a0)
  4010b8:	2467ffd0 	addiu	a3,v1,-48
  4010bc:	30e700ff 	andi	a3,a3,0xff
  4010c0:	2ce7000a 	sltiu	a3,a3,10
  4010c4:	10e0fff1 	beqz	a3,40108c <strtol+0xa0>
  4010c8:	2467ff9f 	addiu	a3,v1,-97
  4010cc:	1000fff4 	b	4010a0 <strtol+0xb4>
  4010d0:	2463ffd0 	addiu	v1,v1,-48
  4010d4:	30e700ff 	andi	a3,a3,0xff
  4010d8:	2ce7001a 	sltiu	a3,a3,26
  4010dc:	14e0fff0 	bnez	a3,4010a0 <strtol+0xb4>
  4010e0:	2463ffc9 	addiu	v1,v1,-55
  4010e4:	54a00001 	bnezl	a1,4010ec <strtol+0x100>
  4010e8:	aca40000 	sw	a0,0(a1)
  4010ec:	00021823 	negu	v1,v0
  4010f0:	03e00008 	jr	ra
  4010f4:	0068100b 	movn	v0,v1,t0

004010f8 <strspn>:
  4010f8:	90a80000 	lbu	t0,0(a1)
  4010fc:	10000005 	b	401114 <strspn+0x1c>
  401100:	00003825 	move	a3,zero
  401104:	10c00010 	beqz	a2,401148 <strspn+0x50>
  401108:	00e01025 	move	v0,a3
  40110c:	24840001 	addiu	a0,a0,1
  401110:	24e70001 	addiu	a3,a3,1
  401114:	5100000c 	beqzl	t0,401148 <strspn+0x50>
  401118:	00e01025 	move	v0,a3
  40111c:	90860000 	lbu	a2,0(a0)
  401120:	1106fff8 	beq	t0,a2,401104 <strspn+0xc>
  401124:	00000000 	nop
  401128:	24a20001 	addiu	v0,a1,1
  40112c:	90430000 	lbu	v1,0(v0)
  401130:	50600005 	beqzl	v1,401148 <strspn+0x50>
  401134:	00e01025 	move	v0,a3
  401138:	1466fffc 	bne	v1,a2,40112c <strspn+0x34>
  40113c:	24420001 	addiu	v0,v0,1
  401140:	1000fff0 	b	401104 <strspn+0xc>
  401144:	00000000 	nop
  401148:	03e00008 	jr	ra
  40114c:	00000000 	nop

00401150 <strpbrk>:
  401150:	90870000 	lbu	a3,0(a0)
  401154:	10e00014 	beqz	a3,4011a8 <strpbrk+0x58>
  401158:	00000000 	nop
  40115c:	90a20000 	lbu	v0,0(a1)
  401160:	00404025 	move	t0,v0
  401164:	5100000b 	beqzl	t0,401194 <strpbrk+0x44>
  401168:	24840001 	addiu	a0,a0,1
  40116c:	10470010 	beq	v0,a3,4011b0 <strpbrk+0x60>
  401170:	00000000 	nop
  401174:	24a30001 	addiu	v1,a1,1
  401178:	90660000 	lbu	a2,0(v1)
  40117c:	50c00005 	beqzl	a2,401194 <strpbrk+0x44>
  401180:	24840001 	addiu	a0,a0,1
  401184:	14c7fffc 	bne	a2,a3,401178 <strpbrk+0x28>
  401188:	24630001 	addiu	v1,v1,1
  40118c:	03e00008 	jr	ra
  401190:	00801025 	move	v0,a0
  401194:	90870000 	lbu	a3,0(a0)
  401198:	14e0fff2 	bnez	a3,401164 <strpbrk+0x14>
  40119c:	00000000 	nop
  4011a0:	03e00008 	jr	ra
  4011a4:	00001025 	move	v0,zero
  4011a8:	03e00008 	jr	ra
  4011ac:	00001025 	move	v0,zero
  4011b0:	03e00008 	jr	ra
  4011b4:	00801025 	move	v0,a0

004011b8 <strtok_inside>:
  4011b8:	27bdffe0 	addiu	sp,sp,-32
  4011bc:	afbf001c 	sw	ra,28(sp)
  4011c0:	afb20018 	sw	s2,24(sp)
  4011c4:	afb10014 	sw	s1,20(sp)
  4011c8:	afb00010 	sw	s0,16(sp)
  4011cc:	00808025 	move	s0,a0
  4011d0:	00a08825 	move	s1,a1
  4011d4:	10800016 	beqz	a0,401230 <strtok_inside+0x78>
  4011d8:	00c09025 	move	s2,a2
  4011dc:	02202825 	move	a1,s1
  4011e0:	0c10043e 	jal	4010f8 <strspn>
  4011e4:	02002025 	move	a0,s0
  4011e8:	02028021 	addu	s0,s0,v0
  4011ec:	92020000 	lbu	v0,0(s0)
  4011f0:	10400015 	beqz	v0,401248 <strtok_inside+0x90>
  4011f4:	02202825 	move	a1,s1
  4011f8:	0c100454 	jal	401150 <strpbrk>
  4011fc:	02002025 	move	a0,s0
  401200:	1040000d 	beqz	v0,401238 <strtok_inside+0x80>
  401204:	00002825 	move	a1,zero
  401208:	a0400000 	sb	zero,0(v0)
  40120c:	24420001 	addiu	v0,v0,1
  401210:	ae420000 	sw	v0,0(s2)
  401214:	02001025 	move	v0,s0
  401218:	8fbf001c 	lw	ra,28(sp)
  40121c:	8fb20018 	lw	s2,24(sp)
  401220:	8fb10014 	lw	s1,20(sp)
  401224:	8fb00010 	lw	s0,16(sp)
  401228:	03e00008 	jr	ra
  40122c:	27bd0020 	addiu	sp,sp,32
  401230:	1000ffea 	b	4011dc <strtok_inside+0x24>
  401234:	8cd00000 	lw	s0,0(a2)
  401238:	0c100388 	jal	400e20 <strchr>
  40123c:	02002025 	move	a0,s0
  401240:	1000fff4 	b	401214 <strtok_inside+0x5c>
  401244:	ae420000 	sw	v0,0(s2)
  401248:	1000fff2 	b	401214 <strtok_inside+0x5c>
  40124c:	00008025 	move	s0,zero

00401250 <strtok>:
  401250:	27bdffe8 	addiu	sp,sp,-24
  401254:	afbf0014 	sw	ra,20(sp)
  401258:	3c060041 	lui	a2,0x41
  40125c:	0c10046e 	jal	4011b8 <strtok_inside>
  401260:	24c613a4 	addiu	a2,a2,5028
  401264:	8fbf0014 	lw	ra,20(sp)
  401268:	03e00008 	jr	ra
  40126c:	27bd0018 	addiu	sp,sp,24

Disassembly of section .MIPS.stubs:

00401270 <_MIPS_STUBS_>:
  401270:	8f998010 	lw	t9,-32752(gp)
  401274:	03e07825 	move	t7,ra
  401278:	0320f809 	jalr	t9
  40127c:	2418000d 	li	t8,13
  401280:	8f998010 	lw	t9,-32752(gp)
  401284:	03e07825 	move	t7,ra
  401288:	0320f809 	jalr	t9
  40128c:	2418000b 	li	t8,11
  401290:	8f998010 	lw	t9,-32752(gp)
  401294:	03e07825 	move	t7,ra
  401298:	0320f809 	jalr	t9
  40129c:	2418000a 	li	t8,10
	...

Disassembly of section .rodata:

004012b0 <.rodata>:
  4012b0:	203d3d3d 	addi	sp,at,15677
  4012b4:	616e7944 	0x616e7944
  4012b8:	2063696d 	addi	v1,v1,26989
  4012bc:	6b6e694c 	0x6b6e694c
  4012c0:	20676e69 	addi	a3,v1,28265
  4012c4:	74736554 	jalx	1cd9550 <_gp+0x18c01e0>
  4012c8:	3d3d3d20 	0x3d3d3d20
  4012cc:	0000000a 	movz	zero,zero,zero
  4012d0:	28646461 	slti	a0,v1,25697
  4012d4:	34202c33 	ori	zero,at,0x2c33
  4012d8:	203d2029 	addi	sp,at,8233
  4012dc:	000a6425 	0xa6425
  4012e0:	286c756d 	slti	t4,v1,30061
  4012e4:	36202c35 	ori	zero,s1,0x2c35
  4012e8:	203d2029 	addi	sp,at,8233
  4012ec:	000a6425 	0xa6425
  4012f0:	28646461 	slti	a0,v1,25697
  4012f4:	202c6425 	addi	t4,at,25637
  4012f8:	20296425 	addi	t1,at,25637
  4012fc:	6425203d 	0x6425203d
  401300:	0000000a 	movz	zero,zero,zero
  401304:	5f746567 	0x5f746567
  401308:	6e756f63 	0x6e756f63
  40130c:	28726574 	slti	s2,v1,25972
  401310:	203d2029 	addi	sp,at,8233
  401314:	000a6425 	0xa6425
  401318:	5f62696c 	0x5f62696c
  40131c:	6e756f63 	0x6e756f63
  401320:	20726574 	addi	s2,v1,25972
  401324:	6f666562 	0x6f666562
  401328:	3d206572 	0x3d206572
  40132c:	0a642520 	j	9909480 <_gp+0x94f0110>
  401330:	00000000 	nop
  401334:	5f62696c 	0x5f62696c
  401338:	6e756f63 	0x6e756f63
  40133c:	20726574 	addi	s2,v1,25972
  401340:	65746661 	0x65746661
  401344:	203d2072 	addi	sp,at,8306
  401348:	000a6425 	0xa6425
  40134c:	61636f6c 	0x61636f6c
  401350:	61765f6c 	0x61765f6c
  401354:	203d2072 	addi	sp,at,8306
  401358:	000a6425 	0xa6425
  40135c:	203d3d3d 	addi	sp,at,15677
  401360:	74736554 	jalx	1cd9550 <_gp+0x18c01e0>
  401364:	6d6f4320 	0x6d6f4320
  401368:	74656c70 	jalx	195b1c0 <_gp+0x1541e50>
  40136c:	3d3d2065 	0x3d3d2065
  401370:	00000a3d 	0xa3d

Disassembly of section .rld_map:

00411374 <__RLD_MAP>:
  411374:	00000000 	nop

Disassembly of section .got:

00411380 <_GLOBAL_OFFSET_TABLE_>:
  411380:	00000000 	nop
  411384:	80000000 	lb	zero,0(zero)
  411388:	00400000 	0x400000
  41138c:	00400888 	0x400888
  411390:	00000000 	nop
  411394:	00401290 	0x401290
  411398:	00401280 	0x401280
  41139c:	00000000 	nop
  4113a0:	00401270 	tge	v0,zero,0x49

Disassembly of section .bss:

004113a4 <__bss_start>:
  4113a4:	00000000 	nop

Disassembly of section .comment:

00000000 <.comment>:
   0:	3a434347 	xori	v1,s2,0x4347
   4:	6f432820 	0x6f432820
   8:	63736564 	0x63736564
   c:	20657061 	addi	a1,v1,28769
  10:	20554e47 	addi	s5,v0,20039
  14:	6c6f6f54 	0x6c6f6f54
  18:	30322073 	andi	s2,at,0x2073
  1c:	312e3731 	andi	t6,t1,0x3731
  20:	35302d30 	ori	s0,t1,0x2d30
  24:	726f6620 	0x726f6620
  28:	50494d20 	beql	v0,t1,134ac <_DYNAMIC-0x3ecc94>
  2c:	544d2053 	bnel	v0,t5,817c <_DYNAMIC-0x3f7fc4>
  30:	61422049 	0x61422049
  34:	4d206572 	0x4d206572
  38:	6c617465 	0x6c617465
  3c:	2e362029 	sltiu	s6,s1,8233
  40:	00302e33 	tltu	at,s0,0xb8

Disassembly of section .pdr:

00000000 <.pdr>:
   0:	004003a8 	0x4003a8
   4:	80070000 	lb	a3,0(zero)
   8:	fffffffc 	sdc3	$31,-4(ra)
	...
  14:	00000028 	0x28
  18:	0000001d 	0x1d
  1c:	0000001f 	0x1f
  20:	00400554 	0x400554
  24:	80000000 	lb	zero,0(zero)
  28:	fffffffc 	sdc3	$31,-4(ra)
	...
  34:	00000020 	add	zero,zero,zero
  38:	0000001d 	0x1d
  3c:	0000001f 	0x1f
  40:	00400584 	0x400584
  44:	80000000 	lb	zero,0(zero)
  48:	fffffffc 	sdc3	$31,-4(ra)
	...
  54:	00000020 	add	zero,zero,zero
  58:	0000001d 	0x1d
  5c:	0000001f 	0x1f
  60:	004005b4 	teq	v0,zero,0x16
  64:	80000000 	lb	zero,0(zero)
  68:	fffffffc 	sdc3	$31,-4(ra)
	...
  74:	00000020 	add	zero,zero,zero
  78:	0000001d 	0x1d
  7c:	0000001f 	0x1f
  80:	004005e4 	0x4005e4
  84:	80000000 	lb	zero,0(zero)
  88:	fffffffc 	sdc3	$31,-4(ra)
	...
  94:	00000020 	add	zero,zero,zero
  98:	0000001d 	0x1d
  9c:	0000001f 	0x1f
  a0:	00400614 	0x400614
  a4:	80000000 	lb	zero,0(zero)
  a8:	fffffffc 	sdc3	$31,-4(ra)
	...
  b4:	00000020 	add	zero,zero,zero
  b8:	0000001d 	0x1d
  bc:	0000001f 	0x1f
  c0:	00400644 	0x400644
  c4:	80000000 	lb	zero,0(zero)
  c8:	fffffffc 	sdc3	$31,-4(ra)
	...
  d4:	00000020 	add	zero,zero,zero
  d8:	0000001d 	0x1d
  dc:	0000001f 	0x1f
  e0:	00400674 	teq	v0,zero,0x19
  e4:	80000000 	lb	zero,0(zero)
  e8:	fffffffc 	sdc3	$31,-4(ra)
	...
  f4:	00000020 	add	zero,zero,zero
  f8:	0000001d 	0x1d
  fc:	0000001f 	0x1f
 100:	004006a8 	0x4006a8
 104:	80000000 	lb	zero,0(zero)
 108:	fffffffc 	sdc3	$31,-4(ra)
	...
 114:	00000020 	add	zero,zero,zero
 118:	0000001d 	0x1d
 11c:	0000001f 	0x1f
 120:	004006d8 	0x4006d8
 124:	80000000 	lb	zero,0(zero)
 128:	fffffffc 	sdc3	$31,-4(ra)
	...
 134:	00000020 	add	zero,zero,zero
 138:	0000001d 	0x1d
 13c:	0000001f 	0x1f
 140:	00400708 	0x400708
 144:	80000000 	lb	zero,0(zero)
 148:	fffffffc 	sdc3	$31,-4(ra)
	...
 154:	00000020 	add	zero,zero,zero
 158:	0000001d 	0x1d
 15c:	0000001f 	0x1f
 160:	00400738 	0x400738
 164:	80000000 	lb	zero,0(zero)
 168:	fffffffc 	sdc3	$31,-4(ra)
	...
 174:	00000020 	add	zero,zero,zero
 178:	0000001d 	0x1d
 17c:	0000001f 	0x1f
 180:	00400768 	0x400768
 184:	80000000 	lb	zero,0(zero)
 188:	fffffffc 	sdc3	$31,-4(ra)
	...
 194:	00000020 	add	zero,zero,zero
 198:	0000001d 	0x1d
 19c:	0000001f 	0x1f
 1a0:	00400798 	0x400798
 1a4:	80000000 	lb	zero,0(zero)
 1a8:	fffffffc 	sdc3	$31,-4(ra)
	...
 1b4:	00000020 	add	zero,zero,zero
 1b8:	0000001d 	0x1d
 1bc:	0000001f 	0x1f
 1c0:	004007c8 	0x4007c8
 1c4:	80000000 	lb	zero,0(zero)
 1c8:	fffffffc 	sdc3	$31,-4(ra)
	...
 1d4:	00000020 	add	zero,zero,zero
 1d8:	0000001d 	0x1d
 1dc:	0000001f 	0x1f
 1e0:	004007f8 	0x4007f8
 1e4:	80000000 	lb	zero,0(zero)
 1e8:	fffffffc 	sdc3	$31,-4(ra)
	...
 1f4:	00000020 	add	zero,zero,zero
 1f8:	0000001d 	0x1d
 1fc:	0000001f 	0x1f
 200:	00400828 	0x400828
 204:	80000000 	lb	zero,0(zero)
 208:	fffffffc 	sdc3	$31,-4(ra)
	...
 214:	00000020 	add	zero,zero,zero
 218:	0000001d 	0x1d
 21c:	0000001f 	0x1f
 220:	00400858 	0x400858
 224:	80000000 	lb	zero,0(zero)
 228:	fffffffc 	sdc3	$31,-4(ra)
	...
 234:	00000020 	add	zero,zero,zero
 238:	0000001d 	0x1d
 23c:	0000001f 	0x1f
 240:	00400888 	0x400888
 244:	80000000 	lb	zero,0(zero)
 248:	fffffffc 	sdc3	$31,-4(ra)
	...
 254:	00000028 	0x28
 258:	0000001d 	0x1d
 25c:	0000001f 	0x1f
 260:	004008cc 	syscall	0x10023
 264:	80000000 	lb	zero,0(zero)
 268:	fffffffc 	sdc3	$31,-4(ra)
	...
 274:	00000020 	add	zero,zero,zero
 278:	0000001d 	0x1d
 27c:	0000001f 	0x1f
 280:	004008fc 	0x4008fc
 284:	80000000 	lb	zero,0(zero)
 288:	fffffffc 	sdc3	$31,-4(ra)
	...
 294:	00000020 	add	zero,zero,zero
 298:	0000001d 	0x1d
 29c:	0000001f 	0x1f
 2a0:	0040092c 	0x40092c
 2a4:	80000000 	lb	zero,0(zero)
 2a8:	fffffffc 	sdc3	$31,-4(ra)
	...
 2b4:	00000020 	add	zero,zero,zero
 2b8:	0000001d 	0x1d
 2bc:	0000001f 	0x1f
 2c0:	0040095c 	0x40095c
 2c4:	80000000 	lb	zero,0(zero)
 2c8:	fffffffc 	sdc3	$31,-4(ra)
	...
 2d4:	00000020 	add	zero,zero,zero
 2d8:	0000001d 	0x1d
 2dc:	0000001f 	0x1f
 2e0:	0040098c 	syscall	0x10026
 2e4:	80000000 	lb	zero,0(zero)
 2e8:	fffffffc 	sdc3	$31,-4(ra)
	...
 2f4:	00000020 	add	zero,zero,zero
 2f8:	0000001d 	0x1d
 2fc:	0000001f 	0x1f
 300:	004009bc 	0x4009bc
 304:	80000000 	lb	zero,0(zero)
 308:	fffffffc 	sdc3	$31,-4(ra)
	...
 314:	00000020 	add	zero,zero,zero
 318:	0000001d 	0x1d
 31c:	0000001f 	0x1f
 320:	004009ec 	0x4009ec
 324:	80000000 	lb	zero,0(zero)
 328:	fffffffc 	sdc3	$31,-4(ra)
	...
 334:	00000020 	add	zero,zero,zero
 338:	0000001d 	0x1d
 33c:	0000001f 	0x1f
 340:	00400a1c 	0x400a1c
 344:	80000000 	lb	zero,0(zero)
 348:	fffffffc 	sdc3	$31,-4(ra)
	...
 354:	00000020 	add	zero,zero,zero
 358:	0000001d 	0x1d
 35c:	0000001f 	0x1f
 360:	00400a4c 	syscall	0x10029
 364:	80000000 	lb	zero,0(zero)
 368:	fffffffc 	sdc3	$31,-4(ra)
	...
 374:	00000020 	add	zero,zero,zero
 378:	0000001d 	0x1d
 37c:	0000001f 	0x1f
 380:	00400a7c 	0x400a7c
 384:	80000000 	lb	zero,0(zero)
 388:	fffffffc 	sdc3	$31,-4(ra)
	...
 394:	00000020 	add	zero,zero,zero
 398:	0000001d 	0x1d
 39c:	0000001f 	0x1f
 3a0:	00400aac 	0x400aac
 3a4:	80000000 	lb	zero,0(zero)
 3a8:	fffffffc 	sdc3	$31,-4(ra)
	...
 3b4:	00000020 	add	zero,zero,zero
 3b8:	0000001d 	0x1d
 3bc:	0000001f 	0x1f
 3c0:	00400adc 	0x400adc
 3c4:	80000000 	lb	zero,0(zero)
 3c8:	fffffffc 	sdc3	$31,-4(ra)
	...
 3d4:	00000020 	add	zero,zero,zero
 3d8:	0000001d 	0x1d
 3dc:	0000001f 	0x1f
 3e0:	00400b0c 	syscall	0x1002c
 3e4:	80000000 	lb	zero,0(zero)
 3e8:	fffffffc 	sdc3	$31,-4(ra)
	...
 3f4:	00000020 	add	zero,zero,zero
 3f8:	0000001d 	0x1d
 3fc:	0000001f 	0x1f
 400:	00400b3c 	0x400b3c
 404:	80000000 	lb	zero,0(zero)
 408:	fffffffc 	sdc3	$31,-4(ra)
	...
 414:	00000020 	add	zero,zero,zero
 418:	0000001d 	0x1d
 41c:	0000001f 	0x1f
 420:	00400b6c 	0x400b6c
 424:	80000000 	lb	zero,0(zero)
 428:	fffffffc 	sdc3	$31,-4(ra)
	...
 434:	00000020 	add	zero,zero,zero
 438:	0000001d 	0x1d
 43c:	0000001f 	0x1f
 440:	00400b9c 	0x400b9c
 444:	80000000 	lb	zero,0(zero)
 448:	fffffffc 	sdc3	$31,-4(ra)
	...
 454:	00000020 	add	zero,zero,zero
 458:	0000001d 	0x1d
 45c:	0000001f 	0x1f
 460:	00400bcc 	syscall	0x1002f
 464:	80000000 	lb	zero,0(zero)
 468:	fffffffc 	sdc3	$31,-4(ra)
	...
 474:	00000020 	add	zero,zero,zero
 478:	0000001d 	0x1d
 47c:	0000001f 	0x1f
 480:	00400bfc 	0x400bfc
	...
 498:	0000001d 	0x1d
 49c:	0000001f 	0x1f
 4a0:	00400c1c 	0x400c1c
	...
 4b8:	0000001d 	0x1d
 4bc:	0000001f 	0x1f
 4c0:	00400c4c 	syscall	0x10031
	...
 4d8:	0000001d 	0x1d
 4dc:	0000001f 	0x1f
 4e0:	00400c98 	0x400c98
	...
 4f8:	0000001d 	0x1d
 4fc:	0000001f 	0x1f
 500:	00400cbc 	0x400cbc
 504:	80030000 	lb	v1,0(zero)
 508:	fffffffc 	sdc3	$31,-4(ra)
	...
 514:	00000020 	add	zero,zero,zero
 518:	0000001d 	0x1d
 51c:	0000001f 	0x1f
 520:	00400cfc 	0x400cfc
	...
 538:	0000001d 	0x1d
 53c:	0000001f 	0x1f
 540:	00400d30 	tge	v0,zero,0x34
	...
 558:	0000001d 	0x1d
 55c:	0000001f 	0x1f
 560:	00400d84 	0x400d84
	...
 578:	0000001d 	0x1d
 57c:	0000001f 	0x1f
 580:	00400dc0 	0x400dc0
	...
 598:	0000001d 	0x1d
 59c:	0000001f 	0x1f
 5a0:	00400e20 	0x400e20
	...
 5b8:	0000001d 	0x1d
 5bc:	0000001f 	0x1f
 5c0:	00400e6c 	0x400e6c
	...
 5d8:	0000001d 	0x1d
 5dc:	0000001f 	0x1f
 5e0:	00400ea8 	0x400ea8
	...
 5f8:	0000001d 	0x1d
 5fc:	0000001f 	0x1f
 600:	00400ed0 	0x400ed0
	...
 618:	0000001d 	0x1d
 61c:	0000001f 	0x1f
 620:	00400f3c 	0x400f3c
 624:	80000000 	lb	zero,0(zero)
 628:	fffffffc 	sdc3	$31,-4(ra)
	...
 634:	00000018 	mult	zero,zero
 638:	0000001d 	0x1d
 63c:	0000001f 	0x1f
 640:	00400f58 	0x400f58
	...
 658:	0000001d 	0x1d
 65c:	0000001f 	0x1f
 660:	00400fa4 	0x400fa4
	...
 678:	0000001d 	0x1d
 67c:	0000001f 	0x1f
 680:	00400fec 	0x400fec
	...
 698:	0000001d 	0x1d
 69c:	0000001f 	0x1f
 6a0:	004010f8 	0x4010f8
	...
 6b8:	0000001d 	0x1d
 6bc:	0000001f 	0x1f
 6c0:	00401150 	0x401150
	...
 6d8:	0000001d 	0x1d
 6dc:	0000001f 	0x1f
 6e0:	004011b8 	0x4011b8
 6e4:	80070000 	lb	a3,0(zero)
 6e8:	fffffffc 	sdc3	$31,-4(ra)
	...
 6f4:	00000020 	add	zero,zero,zero
 6f8:	0000001d 	0x1d
 6fc:	0000001f 	0x1f
 700:	00401250 	0x401250
 704:	80000000 	lb	zero,0(zero)
 708:	fffffffc 	sdc3	$31,-4(ra)
	...
 714:	00000018 	mult	zero,zero
 718:	0000001d 	0x1d
 71c:	0000001f 	0x1f

Disassembly of section .debug_aranges:

00000000 <.debug_aranges>:
   0:	0000001c 	0x1c
   4:	00000002 	srl	zero,zero,0x0
   8:	00040000 	sll	zero,a0,0x0
   c:	00000000 	nop
  10:	004003a8 	0x4003a8
  14:	000001ac 	0x1ac
	...
  20:	0000001c 	0x1c
  24:	021d0002 	0x21d0002
  28:	00040000 	sll	zero,a0,0x0
  2c:	00000000 	nop
  30:	00400554 	0x400554
  34:	000006a8 	0x6a8
	...
  40:	0000001c 	0x1c
  44:	11210002 	beq	t1,at,50 <_DYNAMIC-0x4000f0>
  48:	00040000 	sll	zero,a0,0x0
  4c:	00000000 	nop
  50:	00400bfc 	0x400bfc
  54:	00000020 	add	zero,zero,zero
	...
  60:	0000001c 	0x1c
  64:	11470002 	beq	t2,a3,70 <_DYNAMIC-0x4000d0>
  68:	00040000 	sll	zero,a0,0x0
  6c:	00000000 	nop
  70:	00400c1c 	0x400c1c
  74:	00000654 	0x654
	...

Disassembly of section .debug_info:

00000000 <.debug_info>:
       0:	00000219 	0x219
       4:	00000004 	sllv	zero,zero,zero
       8:	01040000 	0x1040000
       c:	00000018 	mult	zero,zero
      10:	0000b20c 	syscall	0x2c8
      14:	0000ea00 	sll	sp,zero,0x8
      18:	4003a800 	mfc0	v1,$21
      1c:	0001ac00 	sll	s5,at,0x10
      20:	00000000 	nop
      24:	06010200 	bgez	s0,828 <_DYNAMIC-0x3ff918>
      28:	000000d9 	0xd9
      2c:	d7080102 	ldc1	$f8,258(t8)
      30:	02000000 	0x2000000
      34:	013b0502 	0x13b0502
      38:	02020000 	0x2020000
      3c:	00011c07 	0x11c07
      40:	05040200 	0x5040200
      44:	00000005 	lsa	zero,zero,zero,0x1
      48:	a0070402 	sb	a3,1026(zero)
      4c:	02000000 	0x2000000
      50:	00000508 	0x508
      54:	08020000 	j	80000 <_DYNAMIC-0x380140>
      58:	00009b07 	0x9b07
      5c:	05040300 	0x5040300
      60:	00746e69 	0x746e69
      64:	a5070402 	sh	a3,1026(t0)
      68:	02000000 	0x2000000
      6c:	012f0408 	0x12f0408
      70:	04020000 	bltzl	zero,74 <_DYNAMIC-0x4000cc>
      74:	00014507 	0x14507
      78:	6e450400 	0x6e450400
      7c:	65050076 	0x65050076
      80:	0200766e 	0x200766e
      84:	0000890e 	0x890e
      88:	79040600 	ori.b	$w24,$w0,0x4
      8c:	07000000 	bltz	t8,90 <_DYNAMIC-0x4000b0>
      90:	000000cb 	0xcb
      94:	005d0e01 	0x5d0e01
      98:	0e080000 	jal	8200000 <_gp+0x7de6c90>
      9c:	01000000 	0x1000000
      a0:	00005d11 	0x5d11
      a4:	00e50900 	0xe50900
      a8:	16010000 	bne	s0,at,ac <_DYNAMIC-0x400094>
      ac:	0000005d 	0x5d
      b0:	004003a8 	0x4003a8
      b4:	000001ac 	0x1ac
      b8:	830a9c01 	lb	t2,-25599(t8)
      bc:	01000000 	0x1000000
      c0:	00005d17 	0x5d17
      c4:	00000000 	nop
      c8:	008b0a00 	0x8b0a00
      cc:	17010000 	bne	t8,at,d0 <_DYNAMIC-0x400070>
      d0:	0000005d 	0x5d
      d4:	0000001e 	0x1e
      d8:	0000930a 	0x930a
      dc:	5d170100 	0x5d170100
      e0:	3c000000 	lui	zero,0x0
      e4:	0b000000 	j	c000000 <_gp+0xbbe6c90>
      e8:	000000bc 	0xbc
      ec:	005d1901 	0x5d1901
      f0:	00f80000 	0xf80000
      f4:	000c0000 	sll	zero,t4,0x0
      f8:	0000cf0a 	0xcf0a
      fc:	5d260100 	0x5d260100
     100:	65000000 	0x65000000
     104:	0d000000 	jal	4000000 <_gp+0x3be6c90>
     108:	004003e0 	0x4003e0
     10c:	0000011a 	0x11a
     110:	0554010e 	0x554010e
     114:	4012b003 	mfc0	s2,$22,3
     118:	f80d0000 	sdc2	$13,0(zero)
     11c:	2e004003 	sltiu	zero,s0,16387
     120:	0e000001 	jal	8000004 <_gp+0x7be6c94>
     124:	33015401 	andi	at,t8,0x5401
     128:	0155010e 	0x155010e
     12c:	180d0034 	0x180d0034
     130:	47004004 	bz.b	$w0,10144 <_DYNAMIC-0x3efffc>
     134:	0e000001 	jal	8000004 <_gp+0x7be6c94>
     138:	03055401 	0x3055401
     13c:	004012d0 	0x4012d0
     140:	0255010e 	0x255010e
     144:	0d000080 	jal	4000200 <_gp+0x3be6e90>
     148:	00400430 	tge	v0,zero,0x10
     14c:	0000015b 	0x15b
     150:	0154010e 	0x154010e
     154:	55010e35 	bnel	t0,at,3a2c <_DYNAMIC-0x3fc714>
     158:	0d003601 	jal	400d804 <_gp+0x3bf4494>
     15c:	00400450 	0x400450
     160:	00000174 	teq	zero,zero,0x5
     164:	0554010e 	0x554010e
     168:	4012e003 	mfc0	s2,c0_datalo1
     16c:	55010e00 	bnel	t0,at,3970 <_DYNAMIC-0x3fc7d0>
     170:	00008102 	srl	s0,zero,0x4
     174:	4004680d 	0x4004680d
     178:	00018a00 	sll	s1,at,0x8
     17c:	54010e00 	bnel	zero,at,3980 <_DYNAMIC-0x3fc7c0>
     180:	0e008002 	jal	8020008 <_gp+0x7c06c98>
     184:	81025501 	lb	v0,21761(t0)
     188:	900d0000 	lbu	t5,0(zero)
     18c:	af004004 	sw	zero,16388(t8)
     190:	0e000001 	jal	8000004 <_gp+0x7be6c94>
     194:	03055401 	0x3055401
     198:	004012f0 	tge	v0,zero,0x4b
     19c:	0255010e 	0x255010e
     1a0:	010e0080 	0x10e0080
     1a4:	00810256 	0x810256
     1a8:	0257010e 	0x257010e
     1ac:	0f000082 	jal	c000208 <_gp+0xbbe6e98>
     1b0:	004004a0 	0x4004a0
     1b4:	4004bc0d 	0x4004bc0d
     1b8:	0001c700 	sll	t8,at,0x1c
     1bc:	54010e00 	bnel	zero,at,39c0 <_DYNAMIC-0x3fc780>
     1c0:	13040305 	beq	t8,a0,dd8 <_DYNAMIC-0x3ff368>
     1c4:	0d000040 	jal	4000100 <_gp+0x3be6d90>
     1c8:	004004dc 	0x4004dc
     1cc:	000001da 	0x1da
     1d0:	0554010e 	0x554010e
     1d4:	40131803 	mfc0	s3,$3,3
     1d8:	000d0000 	sll	zero,t5,0x0
     1dc:	f3004005 	0xf3004005
     1e0:	0e000001 	jal	8000004 <_gp+0x7be6c94>
     1e4:	03055401 	0x3055401
     1e8:	00401334 	teq	v0,zero,0x4c
     1ec:	0255010e 	0x255010e
     1f0:	0d00c808 	jal	4032020 <_gp+0x3c18cb0>
     1f4:	0040051c 	0x40051c
     1f8:	0000020c 	syscall	0x8
     1fc:	0554010e 	0x554010e
     200:	40134c03 	0x40134c03
     204:	55010e00 	bnel	t0,at,3a08 <_DYNAMIC-0x3fc738>
     208:	002a0802 	ror	at,t2,0x0
     20c:	40053410 	0x40053410
     210:	54010e00 	bnel	zero,at,3a14 <_DYNAMIC-0x3fc72c>
     214:	135c0305 	beq	k0,gp,e2c <_DYNAMIC-0x3ff314>
     218:	00000040 	ssnop
     21c:	000f0000 	sll	zero,t7,0x0
     220:	d5000400 	ldc1	$f0,1024(t0)
     224:	04000000 	bltz	zero,228 <_DYNAMIC-0x3fff18>
     228:	0001af01 	0x1af01
     22c:	01a10c00 	0x1a10c00
     230:	03600000 	0x3600000
     234:	05540000 	0x5540000
     238:	06a80040 	tgei	s5,64
     23c:	00680000 	0x680000
     240:	01020000 	0x1020000
     244:	0000d906 	0xd906
     248:	08010200 	j	40800 <_DYNAMIC-0x3bf940>
     24c:	000000d7 	0xd7
     250:	3b050202 	xori	a1,t8,0x202
     254:	02000001 	movf	zero,s0,$fcc0
     258:	011c0702 	0x11c0702
     25c:	04020000 	bltzl	zero,260 <_DYNAMIC-0x3ffee0>
     260:	00000505 	0x505
     264:	021a0300 	0x21a0300
     268:	4f020000 	lwxc1	$f0,v0(t8)
     26c:	00000053 	mtlhx	zero
     270:	a0070402 	sb	a3,1026(zero)
     274:	02000000 	0x2000000
     278:	00000508 	0x508
     27c:	08020000 	j	80000 <_DYNAMIC-0x380140>
     280:	00009b07 	0x9b07
     284:	021c0300 	0x21c0300
     288:	30030000 	andi	v1,zero,0x0
     28c:	00000048 	0x48
     290:	69050404 	0x69050404
     294:	0200746e 	0x200746e
     298:	00a50704 	0xa50704
     29c:	08020000 	j	80000 <_DYNAMIC-0x380140>
     2a0:	00012f04 	0x12f04
     2a4:	33750500 	andi	s5,k1,0x500
     2a8:	12040032 	beq	s0,a0,374 <_DYNAMIC-0x3ffdcc>
     2ac:	00000068 	0x68
     2b0:	00047d03 	sra	t7,a0,0x14
     2b4:	7a150400 	nori.b	$w16,$w0,0x15
     2b8:	06000000 	bltz	s0,2bc <_DYNAMIC-0x3ffe84>
     2bc:	00000244 	0x244
     2c0:	0823059c 	j	8c1670 <_gp+0x4a8300>
     2c4:	07000001 	bltz	t8,2cc <_DYNAMIC-0x3ffe74>
     2c8:	00000502 	srl	zero,zero,0x14
     2cc:	01082505 	0x1082505
     2d0:	07000000 	bltz	t8,2d4 <_DYNAMIC-0x3ffe6c>
     2d4:	00000458 	0x458
     2d8:	00532805 	lsa	a1,v0,s3,0x1
     2dc:	08800000 	j	2000000 <_gp+0x1be6c90>
     2e0:	05006968 	bltz	t0,1a884 <_DYNAMIC-0x3e58bc>
     2e4:	00005329 	0x5329
     2e8:	6c088400 	0x6c088400
     2ec:	2a05006f 	slti	a1,s0,111
     2f0:	00000053 	mtlhx	zero
     2f4:	04170788 	0x4170788
     2f8:	2b050000 	slti	a1,t8,0
     2fc:	00000053 	mtlhx	zero
     300:	0507078c 	aclr	0x0,1932(t0)
     304:	2c050000 	sltiu	a1,zero,0
     308:	00000053 	mtlhx	zero
     30c:	03010790 	0x3010790
     310:	2d050000 	sltiu	a1,t0,0
     314:	00000053 	mtlhx	zero
     318:	63700894 	0x63700894
     31c:	532e0500 	beql	t9,t6,1720 <_DYNAMIC-0x3fea20>
     320:	98000000 	lwr	zero,0(zero)
     324:	00530900 	0x530900
     328:	01180000 	0x1180000
     32c:	180a0000 	0x180a0000
     330:	1f000001 	bgtz	t8,338 <_DYNAMIC-0x3ffe08>
     334:	07040200 	0x7040200
     338:	00000145 	0x145
     33c:	766e450b 	jalx	9b9142c <_gp+0x97780bc>
     340:	6e650c00 	0x6e650c00
     344:	0e070076 	jal	81c01d8 <_gp+0x7da6e68>
     348:	0000012f 	0x12f
     34c:	011f040d 	break	0x11f,0x10
     350:	6e030000 	0x6e030000
     354:	06000004 	bltz	s0,368 <_DYNAMIC-0x3ffdd8>
     358:	00014028 	0x14028
     35c:	e6040e00 	swc1	$f4,3584(s0)
     360:	03000003 	0x3000003
     364:	00000475 	0x475
     368:	01356306 	0x1356306
     36c:	340f0000 	li	t7,0x0
     370:	01000002 	0x1000002
     374:	000073aa 	0x73aa
     378:	400bcc00 	0x400bcc00
     37c:	00003000 	sll	a2,zero,0x0
     380:	979c0100 	lhu	gp,256(gp)
     384:	10000001 	b	38c <_DYNAMIC-0x3ffdb4>
     388:	00400bf0 	tge	v0,zero,0x2f
     38c:	00000ef8 	0xef8
     390:	03540111 	0x3540111
     394:	1125590a 	beq	t1,a1,167c0 <_DYNAMIC-0x3e9980>
     398:	30015501 	andi	at,zero,0x5501
     39c:	01560111 	0x1560111
     3a0:	57011130 	bnel	t8,at,4864 <_DYNAMIC-0x3fb8dc>
     3a4:	02113001 	movt	a2,s0,$fcc4
     3a8:	3001108d 	andi	at,zero,0x108d
     3ac:	148d0211 	bne	a0,t5,bf4 <_DYNAMIC-0x3ff54c>
     3b0:	00003001 	movf	a2,zero,$fcc0
     3b4:	0004c312 	0x4c312
     3b8:	73a50100 	0x73a50100
     3bc:	9c000000 	0x9c000000
     3c0:	3000400b 	andi	zero,zero,0x400b
     3c4:	01000000 	0x1000000
     3c8:	0002109c 	0x2109c
     3cc:	01971300 	0x1971300
     3d0:	a5010000 	sh	at,0(t0)
     3d4:	00000088 	0x88
     3d8:	00000078 	0x78
     3dc:	6d756e14 	0x6d756e14
     3e0:	88a50100 	lwl	a1,256(a1)
     3e4:	a4000000 	sh	zero,0(zero)
     3e8:	14000000 	bnez	zero,3ec <_DYNAMIC-0x3ffd54>
     3ec:	00667562 	0x667562
     3f0:	0210a501 	0x210a501
     3f4:	00d00000 	0xd00000
     3f8:	c0100000 	ll	s0,0(zero)
     3fc:	f800400b 	sdc2	$0,16395(zero)
     400:	1100000e 	beqz	t0,43c <_DYNAMIC-0x3ffd04>
     404:	0a035401 	j	80d5004 <_gp+0x7cbbc94>
     408:	01112558 	0x1112558
     40c:	01f30355 	0x1f30355
     410:	56011154 	bnel	s0,at,4964 <_DYNAMIC-0x3fb7dc>
     414:	5501f303 	bnel	t0,at,ffffd024 <_gp+0xffbe3cb4>
     418:	03570111 	0x3570111
     41c:	115601f3 	beq	t2,s6,bec <_DYNAMIC-0x3ff554>
     420:	01108d02 	0x1108d02
     424:	8d021130 	lw	v0,4400(t0)
     428:	00300114 	0x300114
     42c:	16040d00 	bne	s0,a0,3830 <_DYNAMIC-0x3fc910>
     430:	02000002 	0x2000002
     434:	00e00801 	movf	at,a3,$fcc0
     438:	16150000 	bne	s0,s5,43c <_DYNAMIC-0x3ffd04>
     43c:	12000002 	beqz	s0,448 <_DYNAMIC-0x3ffcf8>
     440:	0000039e 	0x39e
     444:	0073a101 	0x73a101
     448:	0b6c0000 	j	db00000 <_gp+0xd6e6c90>
     44c:	00300040 	0x300040
     450:	9c010000 	0x9c010000
     454:	00000279 	0x279
     458:	71657214 	udi4	t3,a1,t6,0x8
     45c:	79a10100 	ori.b	$w4,$w0,0xa1
     460:	fc000002 	sdc3	$0,2(zero)
     464:	10000000 	b	468 <_DYNAMIC-0x3ffcd8>
     468:	00400b90 	0x400b90
     46c:	00000ef8 	0xef8
     470:	03540111 	0x3540111
     474:	1125570a 	beq	t1,a1,160a0 <_DYNAMIC-0x3ea0a0>
     478:	f3035501 	0xf3035501
     47c:	01115401 	0x1115401
     480:	11300156 	beq	t1,s0,9dc <_DYNAMIC-0x3ff764>
     484:	30015701 	andi	at,zero,0x5701
     488:	108d0211 	beq	a0,t5,cd0 <_DYNAMIC-0x3ff470>
     48c:	02113001 	movt	a2,s0,$fcc4
     490:	3001148d 	andi	at,zero,0x148d
     494:	040d0000 	0x40d0000
     498:	00000088 	0x88
     49c:	0002a112 	0x2a112
     4a0:	739d0100 	0x739d0100
     4a4:	3c000000 	lui	zero,0x0
     4a8:	3000400b 	andi	zero,zero,0x400b
     4ac:	01000000 	0x1000000
     4b0:	0002e79c 	0x2e79c
     4b4:	01971300 	0x1971300
     4b8:	9d010000 	0x9d010000
     4bc:	00000088 	0x88
     4c0:	00000128 	0x128
     4c4:	6d756e14 	0x6d756e14
     4c8:	889d0100 	lwl	sp,256(a0)
     4cc:	54000000 	bnezl	zero,4d0 <_DYNAMIC-0x3ffc70>
     4d0:	10000001 	b	4d8 <_DYNAMIC-0x3ffc68>
     4d4:	00400b60 	0x400b60
     4d8:	00000ef8 	0xef8
     4dc:	03540111 	0x3540111
     4e0:	1125560a 	beq	t1,a1,15d0c <_DYNAMIC-0x3ea434>
     4e4:	f3035501 	0xf3035501
     4e8:	01115401 	0x1115401
     4ec:	01f30356 	0x1f30356
     4f0:	57011155 	bnel	t8,at,4a48 <_DYNAMIC-0x3fb6f8>
     4f4:	02113001 	movt	a2,s0,$fcc4
     4f8:	3001108d 	andi	at,zero,0x108d
     4fc:	148d0211 	bne	a0,t5,d44 <_DYNAMIC-0x3ff3fc>
     500:	00003001 	movf	a2,zero,$fcc0
     504:	00014e12 	0x14e12
     508:	73990100 	0x73990100
     50c:	0c000000 	jal	0 <_DYNAMIC-0x400140>
     510:	3000400b 	andi	zero,zero,0x400b
     514:	01000000 	0x1000000
     518:	00034f9c 	0x34f9c
     51c:	01971300 	0x1971300
     520:	99010000 	lwr	at,0(t0)
     524:	00000088 	0x88
     528:	00000180 	sll	zero,zero,0x6
     52c:	6d756e14 	0x6d756e14
     530:	88990100 	lwl	t9,256(a0)
     534:	ac000000 	sw	zero,0(zero)
     538:	10000001 	b	540 <_DYNAMIC-0x3ffc00>
     53c:	00400b30 	tge	v0,zero,0x2c
     540:	00000ef8 	0xef8
     544:	03540111 	0x3540111
     548:	1125550a 	beq	t1,a1,15974 <_DYNAMIC-0x3ea7cc>
     54c:	f3035501 	0xf3035501
     550:	01115401 	0x1115401
     554:	01f30356 	0x1f30356
     558:	57011155 	bnel	t8,at,4ab0 <_DYNAMIC-0x3fb690>
     55c:	02113001 	movt	a2,s0,$fcc4
     560:	3001108d 	andi	at,zero,0x108d
     564:	148d0211 	bne	a0,t5,dac <_DYNAMIC-0x3ff394>
     568:	00003001 	movf	a2,zero,$fcc0
     56c:	00032412 	0x32412
     570:	73950100 	0x73950100
     574:	dc000000 	ldc3	$0,0(zero)
     578:	3000400a 	andi	zero,zero,0x400a
     57c:	01000000 	0x1000000
     580:	0003c69c 	0x3c69c
     584:	01971300 	0x1971300
     588:	95010000 	lhu	at,0(t0)
     58c:	00000088 	0x88
     590:	000001d8 	0x1d8
     594:	66756214 	0x66756214
     598:	10950100 	beq	a0,s5,99c <_DYNAMIC-0x3ff7a4>
     59c:	04000002 	bltz	zero,5a8 <_DYNAMIC-0x3ffb98>
     5a0:	14000002 	bnez	zero,5ac <_DYNAMIC-0x3ffb94>
     5a4:	95010069 	lhu	at,105(t0)
     5a8:	00000088 	0x88
     5ac:	00000230 	tge	zero,zero,0x8
     5b0:	400b0010 	0x400b0010
     5b4:	000ef800 	sll	ra,t6,0x0
     5b8:	54011100 	bnel	zero,at,49bc <_DYNAMIC-0x3fb784>
     5bc:	25540a03 	addiu	s4,t2,2563
     5c0:	03550111 	0x3550111
     5c4:	115401f3 	beq	t2,s4,d94 <_DYNAMIC-0x3ff3ac>
     5c8:	f3035601 	0xf3035601
     5cc:	01115501 	0x1115501
     5d0:	01f30357 	0x1f30357
     5d4:	8d021156 	lw	v0,4438(t0)
     5d8:	11300110 	beq	t1,s0,a1c <_DYNAMIC-0x3ff724>
     5dc:	01148d02 	0x1148d02
     5e0:	12000030 	beqz	s0,6a4 <_DYNAMIC-0x3ffa9c>
     5e4:	0000033a 	0x33a
     5e8:	00739001 	0x739001
     5ec:	0aac0000 	j	ab00000 <_gp+0xa6e6c90>
     5f0:	00300040 	0x300040
     5f4:	9c010000 	0x9c010000
     5f8:	0000041d 	0x41d
     5fc:	0004ac13 	0x4ac13
     600:	10900100 	beq	a0,s0,a04 <_DYNAMIC-0x3ff73c>
     604:	5c000002 	bgtzl	zero,610 <_DYNAMIC-0x3ffb30>
     608:	10000002 	b	614 <_DYNAMIC-0x3ffb2c>
     60c:	00400ad0 	0x400ad0
     610:	00000ef8 	0xef8
     614:	03540111 	0x3540111
     618:	1125530a 	beq	t1,a1,15244 <_DYNAMIC-0x3eaefc>
     61c:	f3035501 	0xf3035501
     620:	01115401 	0x1115401
     624:	11300156 	beq	t1,s0,b80 <_DYNAMIC-0x3ff5c0>
     628:	30015701 	andi	at,zero,0x5701
     62c:	108d0211 	beq	a0,t5,e74 <_DYNAMIC-0x3ff2cc>
     630:	02113001 	movt	a2,s0,$fcc4
     634:	3001148d 	andi	at,zero,0x148d
     638:	260f0000 	addiu	t7,s0,0
     63c:	01000005 	lsa	zero,t0,zero,0x1
     640:	0000738c 	syscall	0x1ce
     644:	400a7c00 	0x400a7c00
     648:	00003000 	sll	a2,zero,0x0
     64c:	639c0100 	0x639c0100
     650:	10000004 	b	664 <_DYNAMIC-0x3ffadc>
     654:	00400aa0 	0x400aa0
     658:	00000ef8 	0xef8
     65c:	03540111 	0x3540111
     660:	1125520a 	beq	t1,a1,14e8c <_DYNAMIC-0x3eb2b4>
     664:	30015501 	andi	at,zero,0x5501
     668:	01560111 	0x1560111
     66c:	57011130 	bnel	t8,at,4b30 <_DYNAMIC-0x3fb610>
     670:	02113001 	movt	a2,s0,$fcc4
     674:	3001108d 	andi	at,zero,0x108d
     678:	148d0211 	bne	a0,t5,ec0 <_DYNAMIC-0x3ff280>
     67c:	00003001 	movf	a2,zero,$fcc0
     680:	00024e12 	0x24e12
     684:	73880100 	0x73880100
     688:	4c000000 	lwxc1	$f0,zero(zero)
     68c:	3000400a 	andi	zero,zero,0x400a
     690:	01000000 	0x1000000
     694:	0004cb9c 	0x4cb9c
     698:	04ac1300 	teqi	a1,4864
     69c:	88010000 	lwl	at,0(zero)
     6a0:	00000210 	0x210
     6a4:	00000288 	0x288
     6a8:	72747314 	udi4	s3,s4,t6,0xc
     6ac:	10880100 	beq	a0,t0,ab0 <_DYNAMIC-0x3ff690>
     6b0:	b4000002 	0xb4000002
     6b4:	10000002 	b	6c0 <_DYNAMIC-0x3ffa80>
     6b8:	00400a70 	tge	v0,zero,0x29
     6bc:	00000ef8 	0xef8
     6c0:	03540111 	0x3540111
     6c4:	1125510a 	beq	t1,a1,14af0 <_DYNAMIC-0x3eb650>
     6c8:	f3035501 	0xf3035501
     6cc:	01115401 	0x1115401
     6d0:	01f30356 	0x1f30356
     6d4:	57011155 	bnel	t8,at,4c2c <_DYNAMIC-0x3fb514>
     6d8:	02113001 	movt	a2,s0,$fcc4
     6dc:	3001108d 	andi	at,zero,0x108d
     6e0:	148d0211 	bne	a0,t5,f28 <_DYNAMIC-0x3ff218>
     6e4:	00003001 	movf	a2,zero,$fcc0
     6e8:	0002ee12 	0x2ee12
     6ec:	73840100 	0x73840100
     6f0:	1c000000 	bgtz	zero,6f4 <_DYNAMIC-0x3ffa4c>
     6f4:	3000400a 	andi	zero,zero,0x400a
     6f8:	01000000 	0x1000000
     6fc:	0005229c 	0x5229c
     700:	04ac1300 	teqi	a1,4864
     704:	84010000 	lh	at,0(zero)
     708:	00000210 	0x210
     70c:	000002e0 	0x2e0
     710:	400a4010 	0x400a4010
     714:	000ef800 	sll	ra,t6,0x0
     718:	54011100 	bnel	zero,at,4b1c <_DYNAMIC-0x3fb624>
     71c:	25500a03 	addiu	s0,t2,2563
     720:	03550111 	0x3550111
     724:	115401f3 	beq	t2,s4,ef4 <_DYNAMIC-0x3ff24c>
     728:	30015601 	andi	at,zero,0x5601
     72c:	01570111 	0x1570111
     730:	8d021130 	lw	v0,4400(t0)
     734:	11300110 	beq	t1,s0,b78 <_DYNAMIC-0x3ff5c8>
     738:	01148d02 	0x1148d02
     73c:	12000030 	beqz	s0,800 <_DYNAMIC-0x3ff940>
     740:	00000483 	sra	zero,zero,0x12
     744:	00738001 	0x738001
     748:	09ec0000 	j	7b00000 <_gp+0x76e6c90>
     74c:	00300040 	0x300040
     750:	9c010000 	0x9c010000
     754:	00000579 	0x579
     758:	00034513 	0x34513
     75c:	10800100 	beqz	a0,b60 <_DYNAMIC-0x3ff5e0>
     760:	0c000002 	jal	8 <_DYNAMIC-0x400138>
     764:	10000003 	b	774 <_DYNAMIC-0x3ff9cc>
     768:	00400a10 	0x400a10
     76c:	00000ef8 	0xef8
     770:	03540111 	0x3540111
     774:	11254f0a 	beq	t1,a1,143a0 <_DYNAMIC-0x3ebda0>
     778:	f3035501 	0xf3035501
     77c:	01115401 	0x1115401
     780:	11300156 	beq	t1,s0,cdc <_DYNAMIC-0x3ff464>
     784:	30015701 	andi	at,zero,0x5701
     788:	108d0211 	beq	a0,t5,fd0 <_DYNAMIC-0x3ff170>
     78c:	02113001 	movt	a2,s0,$fcc4
     790:	3001148d 	andi	at,zero,0x148d
     794:	19120000 	0x19120000
     798:	01000003 	0x1000003
     79c:	0000737c 	0x737c
     7a0:	4009bc00 	0x4009bc00
     7a4:	00003000 	sll	a2,zero,0x0
     7a8:	d09c0100 	0xd09c0100
     7ac:	13000005 	beqz	t8,7c4 <_DYNAMIC-0x3ff97c>
     7b0:	000004ac 	0x4ac
     7b4:	02107c01 	0x2107c01
     7b8:	03380000 	0x3380000
     7bc:	e0100000 	sc	s0,0(zero)
     7c0:	f8004009 	sdc2	$0,16393(zero)
     7c4:	1100000e 	beqz	t0,800 <_DYNAMIC-0x3ff940>
     7c8:	0a035401 	j	80d5004 <_gp+0x7cbbc94>
     7cc:	0111254e 	0x111254e
     7d0:	01f30355 	0x1f30355
     7d4:	56011154 	bnel	s0,at,4d28 <_DYNAMIC-0x3fb418>
     7d8:	01113001 	movt	a2,t0,$fcc4
     7dc:	11300157 	beq	t1,s0,d3c <_DYNAMIC-0x3ff404>
     7e0:	01108d02 	0x1108d02
     7e4:	8d021130 	lw	v0,4400(t0)
     7e8:	00300114 	0x300114
     7ec:	04241200 	0x4241200
     7f0:	78010000 	andi.b	$w0,$w0,0x1
     7f4:	00000073 	tltu	zero,zero,0x1
     7f8:	0040098c 	syscall	0x10026
     7fc:	00000030 	tge	zero,zero
     800:	06279c01 	aset	0x1,-1023(s1)
     804:	ac130000 	sw	s3,0(zero)
     808:	01000004 	sllv	zero,zero,t0
     80c:	00021078 	0x21078
     810:	00036400 	sll	t4,v1,0x10
     814:	09b01000 	j	6c04000 <_gp+0x67eac90>
     818:	0ef80040 	jal	be00100 <_gp+0xb9e6d90>
     81c:	01110000 	0x1110000
     820:	4d0a0354 	0x4d0a0354
     824:	55011125 	bnel	t0,at,4cbc <_DYNAMIC-0x3fb484>
     828:	5401f303 	bnel	zero,at,ffffd438 <_gp+0xffbe40c8>
     82c:	01560111 	0x1560111
     830:	57011130 	bnel	t8,at,4cf4 <_DYNAMIC-0x3fb44c>
     834:	02113001 	movt	a2,s0,$fcc4
     838:	3001108d 	andi	at,zero,0x108d
     83c:	148d0211 	bne	a0,t5,1084 <_DYNAMIC-0x3ff0bc>
     840:	00003001 	movf	a2,zero,$fcc0
     844:	00051116 	0x51116
     848:	5c730100 	0x5c730100
     84c:	30004009 	andi	zero,zero,0x4009
     850:	01000000 	0x1000000
     854:	00067a9c 	0x67a9c
     858:	03cf1300 	0x3cf1300
     85c:	73010000 	madd	t8,at
     860:	00000088 	0x88
     864:	00000390 	0x390
     868:	40098010 	0x40098010
     86c:	000ef800 	sll	ra,t6,0x0
     870:	54011100 	bnel	zero,at,4c74 <_DYNAMIC-0x3fb4cc>
     874:	254c0a03 	addiu	t4,t2,2563
     878:	03550111 	0x3550111
     87c:	115401f3 	beq	t2,s4,104c <_DYNAMIC-0x3ff0f4>
     880:	30015601 	andi	at,zero,0x5601
     884:	01570111 	0x1570111
     888:	8d021130 	lw	v0,4400(t0)
     88c:	11300110 	beq	t1,s0,cd0 <_DYNAMIC-0x3ff470>
     890:	01148d02 	0x1148d02
     894:	16000030 	bnez	s0,958 <_DYNAMIC-0x3ff7e8>
     898:	00000209 	0x209
     89c:	092c6e01 	j	4b1b804 <_gp+0x4702494>
     8a0:	00300040 	0x300040
     8a4:	9c010000 	0x9c010000
     8a8:	000006ef 	0x6ef
     8ac:	00019013 	0x19013
     8b0:	ef6e0100 	swc3	$14,256(k1)
     8b4:	bc000006 	cache	0x0,6(zero)
     8b8:	14000003 	bnez	zero,8c8 <_DYNAMIC-0x3ff878>
     8bc:	00746572 	tlt	v1,s4,0x195
     8c0:	02106e01 	0x2106e01
     8c4:	03e80000 	0x3e80000
     8c8:	5d130000 	0x5d130000
     8cc:	01000002 	0x1000002
     8d0:	0000736e 	0x736e
     8d4:	00041400 	sll	v0,a0,0x10
     8d8:	09501000 	j	5404000 <_gp+0x4feac90>
     8dc:	0ef80040 	jal	be00100 <_gp+0xb9e6d90>
     8e0:	01110000 	0x1110000
     8e4:	4b0a0354 	c2	0x10a0354
     8e8:	55011125 	bnel	t0,at,4d80 <_DYNAMIC-0x3fb3c0>
     8ec:	5401f303 	bnel	zero,at,ffffd4fc <_gp+0xffbe418c>
     8f0:	03560111 	0x3560111
     8f4:	115501f3 	beq	t2,s5,10c4 <_DYNAMIC-0x3ff07c>
     8f8:	f3035701 	0xf3035701
     8fc:	02115601 	0x2115601
     900:	3001108d 	andi	at,zero,0x108d
     904:	148d0211 	bne	a0,t5,114c <_DYNAMIC-0x3feff4>
     908:	00003001 	movf	a2,zero,$fcc0
     90c:	021d040d 	break	0x21d,0x10
     910:	8a120000 	lwl	s2,0(s0)
     914:	01000003 	0x1000003
     918:	00008869 	0x8869
     91c:	4008fc00 	0x4008fc00
     920:	00003000 	sll	a2,zero,0x0
     924:	3b9c0100 	xori	gp,gp,0x100
     928:	10000007 	b	948 <_DYNAMIC-0x3ff7f8>
     92c:	00400920 	0x400920
     930:	00000ef8 	0xef8
     934:	03540111 	0x3540111
     938:	11254a0a 	beq	t1,a1,13164 <_DYNAMIC-0x3ecfdc>
     93c:	30015501 	andi	at,zero,0x5501
     940:	01560111 	0x1560111
     944:	57011130 	bnel	t8,at,4e08 <_DYNAMIC-0x3fb338>
     948:	02113001 	movt	a2,s0,$fcc4
     94c:	3001108d 	andi	at,zero,0x108d
     950:	148d0211 	bne	a0,t5,1198 <_DYNAMIC-0x3fefa8>
     954:	00003001 	movf	a2,zero,$fcc0
     958:	0004f116 	0x4f116
     95c:	cc640100 	pref	0x4,256(v1)
     960:	30004008 	andi	zero,zero,0x4008
     964:	01000000 	0x1000000
     968:	00078e9c 	0x78e9c
     96c:	61761400 	0x61761400
     970:	6401006c 	0x6401006c
     974:	00000088 	0x88
     978:	00000440 	sll	zero,zero,0x11
     97c:	4008f010 	0x4008f010
     980:	000ef800 	sll	ra,t6,0x0
     984:	54011100 	bnel	zero,at,4d88 <_DYNAMIC-0x3fb3b8>
     988:	25490a03 	addiu	t1,t2,2563
     98c:	03550111 	0x3550111
     990:	115401f3 	beq	t2,s4,1160 <_DYNAMIC-0x3fefe0>
     994:	30015601 	andi	at,zero,0x5601
     998:	01570111 	0x1570111
     99c:	8d021130 	lw	v0,4400(t0)
     9a0:	11300110 	beq	t1,s0,de4 <_DYNAMIC-0x3ff35c>
     9a4:	01148d02 	0x1148d02
     9a8:	16000030 	bnez	s0,a6c <_DYNAMIC-0x3ff6d4>
     9ac:	000000bc 	0xbc
     9b0:	08885d01 	j	2217404 <_gp+0x1dfe094>
     9b4:	00440040 	0x440040
     9b8:	9c010000 	0x9c010000
     9bc:	000007f0 	tge	zero,zero,0x1f
     9c0:	746d6614 	jalx	1b59850 <_gp+0x17404e0>
     9c4:	105d0100 	beq	v0,sp,dc8 <_DYNAMIC-0x3ff378>
     9c8:	6c000002 	0x6c000002
     9cc:	17000004 	bnez	t8,9e0 <_DYNAMIC-0x3ff760>
     9d0:	00706118 	0x706118
     9d4:	01465f01 	0x1465f01
     9d8:	91020000 	lbu	v0,0(t0)
     9dc:	08c01070 	j	30041c0 <_gp+0x2beae50>
     9e0:	0ef80040 	jal	be00100 <_gp+0xb9e6d90>
     9e4:	01110000 	0x1110000
     9e8:	480a0354 	0x480a0354
     9ec:	55011125 	bnel	t0,at,4e84 <_DYNAMIC-0x3fb2bc>
     9f0:	5401f303 	bnel	zero,at,ffffd600 <_gp+0xffbe4290>
     9f4:	02560111 	0x2560111
     9f8:	01117091 	0x1117091
     9fc:	11300157 	beq	t1,s0,f5c <_DYNAMIC-0x3ff1e4>
     a00:	01108d02 	0x1108d02
     a04:	8d021130 	lw	v0,4400(t0)
     a08:	00300114 	0x300114
     a0c:	01681200 	0x1681200
     a10:	58010000 	0x58010000
     a14:	00000073 	tltu	zero,zero,0x1
     a18:	00400858 	0x400858
     a1c:	00000030 	tge	zero,zero
     a20:	08689c01 	j	1a27004 <_gp+0x160dc94>
     a24:	76140000 	jalx	8500000 <_gp+0x80e6c90>
     a28:	58010061 	0x58010061
     a2c:	00000093 	0x93
     a30:	00000498 	0x498
     a34:	76656414 	jalx	9959050 <_gp+0x953fce0>
     a38:	93580100 	lbu	t8,256(k0)
     a3c:	c4000000 	lwc1	$f0,0(zero)
     a40:	14000004 	bnez	zero,a54 <_DYNAMIC-0x3ff6ec>
     a44:	006e656c 	0x6e656c
     a48:	00935801 	0x935801
     a4c:	04f00000 	bltzal	a3,a50 <_DYNAMIC-0x3ff6f0>
     a50:	7c100000 	ext	s0,zero,0x0,0x1
     a54:	f8004008 	sdc2	$0,16392(zero)
     a58:	1100000e 	beqz	t0,a94 <_DYNAMIC-0x3ff6ac>
     a5c:	0a035401 	j	80d5004 <_gp+0x7cbbc94>
     a60:	01112547 	0x1112547
     a64:	01f30355 	0x1f30355
     a68:	56011154 	bnel	s0,at,4fbc <_DYNAMIC-0x3fb184>
     a6c:	5501f303 	bnel	t0,at,ffffd67c <_gp+0xffbe430c>
     a70:	03570111 	0x3570111
     a74:	115601f3 	beq	t2,s6,1244 <_DYNAMIC-0x3feefc>
     a78:	01108d02 	0x1108d02
     a7c:	8d021130 	lw	v0,4400(t0)
     a80:	00300114 	0x300114
     a84:	02651200 	0x2651200
     a88:	52010000 	beql	s0,at,a8c <_DYNAMIC-0x3ff6b4>
     a8c:	00000073 	tltu	zero,zero,0x1
     a90:	00400828 	0x400828
     a94:	00000030 	tge	zero,zero
     a98:	08e09c01 	j	3827004 <_gp+0x340dc94>
     a9c:	76140000 	jalx	8500000 <_gp+0x80e6c90>
     aa0:	52010061 	beql	s0,at,c28 <_DYNAMIC-0x3ff518>
     aa4:	00000093 	0x93
     aa8:	0000051c 	0x51c
     aac:	76656414 	jalx	9959050 <_gp+0x953fce0>
     ab0:	93520100 	lbu	s2,256(k0)
     ab4:	48000000 	mfc2	zero,$0
     ab8:	14000005 	bnez	zero,ad0 <_DYNAMIC-0x3ff670>
     abc:	006e656c 	0x6e656c
     ac0:	00935201 	0x935201
     ac4:	05740000 	0x5740000
     ac8:	4c100000 	lwxc1	$f0,s0(zero)
     acc:	f8004008 	sdc2	$0,16392(zero)
     ad0:	1100000e 	beqz	t0,b0c <_DYNAMIC-0x3ff634>
     ad4:	0a035401 	j	80d5004 <_gp+0x7cbbc94>
     ad8:	01112546 	0x1112546
     adc:	01f30355 	0x1f30355
     ae0:	56011154 	bnel	s0,at,5034 <_DYNAMIC-0x3fb10c>
     ae4:	5501f303 	bnel	t0,at,ffffd6f4 <_gp+0xffbe4384>
     ae8:	03570111 	0x3570111
     aec:	115601f3 	beq	t2,s6,12bc <_DYNAMIC-0x3fee84>
     af0:	01108d02 	0x1108d02
     af4:	8d021130 	lw	v0,4400(t0)
     af8:	00300114 	0x300114
     afc:	02770f00 	0x2770f00
     b00:	4d010000 	lwxc1	$f0,at(t0)
     b04:	00000073 	tltu	zero,zero,0x1
     b08:	004007f8 	0x4007f8
     b0c:	00000030 	tge	zero,zero
     b10:	09269c01 	j	49a7004 <_gp+0x458dc94>
     b14:	1c100000 	0x1c100000
     b18:	f8004008 	sdc2	$0,16392(zero)
     b1c:	1100000e 	beqz	t0,b58 <_DYNAMIC-0x3ff5e8>
     b20:	0a035401 	j	80d5004 <_gp+0x7cbbc94>
     b24:	01112545 	0x1112545
     b28:	11300155 	beq	t1,s0,1080 <_DYNAMIC-0x3ff0c0>
     b2c:	30015601 	andi	at,zero,0x5601
     b30:	01570111 	0x1570111
     b34:	8d021130 	lw	v0,4400(t0)
     b38:	11300110 	beq	t1,s0,f7c <_DYNAMIC-0x3ff1c4>
     b3c:	01148d02 	0x1148d02
     b40:	16000030 	bnez	s0,c04 <_DYNAMIC-0x3ff53c>
     b44:	000002c1 	0x2c1
     b48:	07c84801 	tgei	s8,18433
     b4c:	00300040 	0x300040
     b50:	9c010000 	0x9c010000
     b54:	00000979 	0x979
     b58:	00028b13 	0x28b13
     b5c:	93480100 	lbu	t0,256(k0)
     b60:	a0000000 	sb	zero,0(zero)
     b64:	10000005 	b	b7c <_DYNAMIC-0x3ff5c4>
     b68:	004007ec 	0x4007ec
     b6c:	00000ef8 	0xef8
     b70:	03540111 	0x3540111
     b74:	1125440a 	beq	t1,a1,11ba0 <_DYNAMIC-0x3ee5a0>
     b78:	f3035501 	0xf3035501
     b7c:	01115401 	0x1115401
     b80:	11300156 	beq	t1,s0,10dc <_DYNAMIC-0x3ff064>
     b84:	30015701 	andi	at,zero,0x5701
     b88:	108d0211 	beq	a0,t5,13d0 <_DYNAMIC-0x3fed70>
     b8c:	02113001 	movt	a2,s0,$fcc4
     b90:	3001148d 	andi	at,zero,0x148d
     b94:	4b120000 	c2	0x1120000
     b98:	01000003 	0x1000003
     b9c:	00007343 	sra	t6,zero,0xd
     ba0:	40079800 	mfc0	a3,c0_watchhi
     ba4:	00003000 	sll	a2,zero,0x0
     ba8:	039c0100 	0x39c0100
     bac:	1300000a 	beqz	t8,bd8 <_DYNAMIC-0x3ff568>
     bb0:	00000403 	sra	zero,zero,0x10
     bb4:	00934301 	0x934301
     bb8:	05cc0000 	teqi	t6,0
     bbc:	25130000 	addiu	s3,t0,0
     bc0:	01000002 	0x1000002
     bc4:	00009343 	sra	s2,zero,0xd
     bc8:	0005f800 	sll	ra,a1,0x0
     bcc:	04631300 	bgezl	v1,57d0 <_DYNAMIC-0x3fa970>
     bd0:	43010000 	c0	0x1010000
     bd4:	00000093 	0x93
     bd8:	00000624 	0x624
     bdc:	00046913 	0x46913
     be0:	93430100 	lbu	v1,256(k0)
     be4:	50000000 	beqzl	zero,be8 <_DYNAMIC-0x3ff558>
     be8:	10000006 	b	c04 <_DYNAMIC-0x3ff53c>
     bec:	004007bc 	0x4007bc
     bf0:	00000ef8 	0xef8
     bf4:	03540111 	0x3540111
     bf8:	1125430a 	beq	t1,a1,11824 <_DYNAMIC-0x3ee91c>
     bfc:	f3035501 	0xf3035501
     c00:	01115401 	0x1115401
     c04:	01f30356 	0x1f30356
     c08:	57011155 	bnel	t8,at,5160 <_DYNAMIC-0x3fafe0>
     c0c:	5601f303 	bnel	s0,at,ffffd81c <_gp+0xffbe44ac>
     c10:	108d0211 	beq	a0,t5,1458 <_DYNAMIC-0x3fece8>
     c14:	5701f303 	bnel	t8,at,ffffd824 <_gp+0xffbe44b4>
     c18:	148d0211 	bne	a0,t5,1460 <_DYNAMIC-0x3fece0>
     c1c:	00003001 	movf	a2,zero,$fcc0
     c20:	00040916 	0x40916
     c24:	683e0100 	0x683e0100
     c28:	30004007 	andi	zero,zero,0x4007
     c2c:	01000000 	0x1000000
     c30:	000a569c 	0xa569c
     c34:	736d1400 	0x736d1400
     c38:	3e010067 	0x3e010067
     c3c:	00000210 	0x210
     c40:	0000067d 	0x67d
     c44:	40078c10 	0x40078c10
     c48:	000ef800 	sll	ra,t6,0x0
     c4c:	54011100 	bnel	zero,at,5050 <_DYNAMIC-0x3fb0f0>
     c50:	25420a03 	addiu	v0,t2,2563
     c54:	03550111 	0x3550111
     c58:	115401f3 	beq	t2,s4,1428 <_DYNAMIC-0x3fed18>
     c5c:	30015601 	andi	at,zero,0x5601
     c60:	01570111 	0x1570111
     c64:	8d021130 	lw	v0,4400(t0)
     c68:	11300110 	beq	t1,s0,10ac <_DYNAMIC-0x3ff094>
     c6c:	01148d02 	0x1148d02
     c70:	12000030 	beqz	s0,d34 <_DYNAMIC-0x3ff40c>
     c74:	000004db 	0x4db
     c78:	00733901 	0x733901
     c7c:	07380000 	0x7380000
     c80:	00300040 	0x300040
     c84:	9c010000 	0x9c010000
     c88:	00000abd 	0xabd
     c8c:	00040313 	0x40313
     c90:	93390100 	lbu	t9,256(t9)
     c94:	a9000000 	swl	zero,0(t0)
     c98:	14000006 	bnez	zero,cb4 <_DYNAMIC-0x3ff48c>
     c9c:	01006674 	teq	t0,zero,0x199
     ca0:	000abd39 	0xabd39
     ca4:	0006d500 	sll	k0,a2,0x14
     ca8:	075c1000 	0x75c1000
     cac:	0ef80040 	jal	be00100 <_gp+0xb9e6d90>
     cb0:	01110000 	0x1110000
     cb4:	410a0354 	0x410a0354
     cb8:	55011125 	bnel	t0,at,5150 <_DYNAMIC-0x3faff0>
     cbc:	5401f303 	bnel	zero,at,ffffd8cc <_gp+0xffbe455c>
     cc0:	03560111 	0x3560111
     cc4:	115501f3 	beq	t2,s5,1494 <_DYNAMIC-0x3fecac>
     cc8:	30015701 	andi	at,zero,0x5701
     ccc:	108d0211 	beq	a0,t5,1514 <_DYNAMIC-0x3fec2c>
     cd0:	02113001 	movt	a2,s0,$fcc4
     cd4:	3001148d 	andi	at,zero,0x148d
     cd8:	040d0000 	0x40d0000
     cdc:	0000009e 	0x9e
     ce0:	00043212 	0x43212
     ce4:	73340100 	0x73340100
     ce8:	08000000 	j	0 <_DYNAMIC-0x400140>
     cec:	30004007 	andi	zero,zero,0x4007
     cf0:	01000000 	0x1000000
     cf4:	000b2b9c 	0xb2b9c
     cf8:	04031300 	bgezl	zero,58fc <_DYNAMIC-0x3fa844>
     cfc:	34010000 	li	at,0x0
     d00:	00000093 	0x93
     d04:	00000701 	0x701
     d08:	00045c13 	0x45c13
     d0c:	93340100 	lbu	s4,256(t9)
     d10:	2d000000 	sltiu	zero,t0,0
     d14:	10000007 	b	d34 <_DYNAMIC-0x3ff40c>
     d18:	0040072c 	0x40072c
     d1c:	00000ef8 	0xef8
     d20:	03540111 	0x3540111
     d24:	1125400a 	beq	t1,a1,10d50 <_DYNAMIC-0x3ef3f0>
     d28:	f3035501 	0xf3035501
     d2c:	01115401 	0x1115401
     d30:	01f30356 	0x1f30356
     d34:	57011155 	bnel	t8,at,528c <_DYNAMIC-0x3faeb4>
     d38:	02113001 	movt	a2,s0,$fcc4
     d3c:	3001108d 	andi	at,zero,0x108d
     d40:	148d0211 	bne	a0,t5,1588 <_DYNAMIC-0x3febb8>
     d44:	00003001 	movf	a2,zero,$fcc0
     d48:	00017916 	0x17916
     d4c:	d82f0100 	ldc2	$15,256(at)
     d50:	30004006 	andi	zero,zero,0x4006
     d54:	01000000 	0x1000000
     d58:	000b8f9c 	0xb8f9c
     d5c:	02fc1300 	0x2fc1300
     d60:	2f010000 	sltiu	at,t8,0
     d64:	00000b8f 	0xb8f
     d68:	00000759 	0x759
     d6c:	67726114 	0x67726114
     d70:	732f0100 	0x732f0100
     d74:	85000000 	lh	zero,0(t0)
     d78:	10000007 	b	d98 <_DYNAMIC-0x3ff3a8>
     d7c:	004006fc 	0x4006fc
     d80:	00000ef8 	0xef8
     d84:	03540111 	0x3540111
     d88:	11253f0a 	beq	t1,a1,109b4 <_DYNAMIC-0x3ef78c>
     d8c:	f3035501 	0xf3035501
     d90:	01115401 	0x1115401
     d94:	01f30356 	0x1f30356
     d98:	57011155 	bnel	t8,at,52f0 <_DYNAMIC-0x3fae50>
     d9c:	02113001 	movt	a2,s0,$fcc4
     da0:	3001108d 	andi	at,zero,0x108d
     da4:	148d0211 	bne	a0,t5,15ec <_DYNAMIC-0x3feb54>
     da8:	00003001 	movf	a2,zero,$fcc0
     dac:	bd120419 	cache	0x12,1049(t0)
     db0:	01000003 	0x1000003
     db4:	00007329 	0x7329
     db8:	4006a800 	mfc0	a2,$21
     dbc:	00003000 	sll	a2,zero,0x0
     dc0:	f89c0100 	sdc2	$28,256(a0)
     dc4:	1300000b 	beqz	t8,df4 <_DYNAMIC-0x3ff34c>
     dc8:	00000403 	sra	zero,zero,0x10
     dcc:	00932901 	0x932901
     dd0:	07b10000 	bgezal	sp,dd4 <_DYNAMIC-0x3ff36c>
     dd4:	76140000 	jalx	8500000 <_gp+0x80e6c90>
     dd8:	29010061 	slti	at,t0,97
     ddc:	00000093 	0x93
     de0:	000007dd 	0x7dd
     de4:	4006cc10 	0x4006cc10
     de8:	000ef800 	sll	ra,t6,0x0
     dec:	54011100 	bnel	zero,at,51f0 <_DYNAMIC-0x3faf50>
     df0:	253e0a03 	addiu	s8,t1,2563
     df4:	03550111 	0x3550111
     df8:	115401f3 	beq	t2,s4,15c8 <_DYNAMIC-0x3feb78>
     dfc:	f3035601 	0xf3035601
     e00:	01115501 	0x1115501
     e04:	11300157 	beq	t1,s0,1364 <_DYNAMIC-0x3feddc>
     e08:	01108d02 	0x1108d02
     e0c:	8d021130 	lw	v0,4400(t0)
     e10:	00300114 	0x300114
     e14:	02911200 	0x2911200
     e18:	24010000 	li	at,0
     e1c:	00000073 	tltu	zero,zero,0x1
     e20:	00400674 	teq	v0,zero,0x19
     e24:	00000034 	teq	zero,zero
     e28:	0c939c01 	jal	24e7004 <_gp+0x20cdc94>
     e2c:	bb130000 	swr	s3,0(t8)
     e30:	01000002 	0x1000002
     e34:	00009324 	0x9324
     e38:	00080900 	sll	at,t0,0x4
     e3c:	04631300 	bgezl	v1,5a40 <_DYNAMIC-0x3fa700>
     e40:	24010000 	li	at,0
     e44:	00000093 	0x93
     e48:	00000835 	0x835
     e4c:	00049313 	0x49313
     e50:	93240100 	lbu	a0,256(t9)
     e54:	61000000 	0x61000000
     e58:	13000008 	beqz	t8,e7c <_DYNAMIC-0x3ff2c4>
     e5c:	0000028b 	0x28b
     e60:	00932401 	0x932401
     e64:	088d0000 	j	2340000 <_gp+0x1f26c90>
     e68:	69130000 	0x69130000
     e6c:	01000004 	sllv	zero,zero,t0
     e70:	00009324 	0x9324
     e74:	0008ba00 	sll	s7,t0,0x8
     e78:	069c1000 	0x69c1000
     e7c:	0ef80040 	jal	be00100 <_gp+0xb9e6d90>
     e80:	01110000 	0x1110000
     e84:	3d0a0354 	0x3d0a0354
     e88:	55011125 	bnel	t0,at,5320 <_DYNAMIC-0x3fae20>
     e8c:	5401f303 	bnel	zero,at,ffffda9c <_gp+0xffbe472c>
     e90:	03560111 	0x3560111
     e94:	115501f3 	beq	t2,s5,1664 <_DYNAMIC-0x3feadc>
     e98:	f3035701 	0xf3035701
     e9c:	02115601 	0x2115601
     ea0:	f303108d 	0xf303108d
     ea4:	02115701 	0x2115701
     ea8:	9103148d 	lbu	v1,5261(t0)
     eac:	00000610 	0x610
     eb0:	0004b112 	0x4b112
     eb4:	731f0100 	0x731f0100
     eb8:	44000000 	mfc1	zero,$f0
     ebc:	30004006 	andi	zero,zero,0x4006
     ec0:	01000000 	0x1000000
     ec4:	000d0b9c 	0xd0b9c
     ec8:	04031300 	bgezl	zero,5acc <_DYNAMIC-0x3fa674>
     ecc:	1f010000 	0x1f010000
     ed0:	00000093 	0x93
     ed4:	000008da 	0x8da
     ed8:	00617614 	0x617614
     edc:	00931f01 	0x931f01
     ee0:	09060000 	j	4180000 <_gp+0x3d66c90>
     ee4:	69130000 	0x69130000
     ee8:	01000004 	sllv	zero,zero,t0
     eec:	0000931f 	0x931f
     ef0:	00093200 	sll	a2,t1,0x8
     ef4:	06681000 	tgei	s3,4096
     ef8:	0ef80040 	jal	be00100 <_gp+0xb9e6d90>
     efc:	01110000 	0x1110000
     f00:	3c0a0354 	lui	t2,0x354
     f04:	55011125 	bnel	t0,at,539c <_DYNAMIC-0x3fada4>
     f08:	5401f303 	bnel	zero,at,ffffdb18 <_gp+0xffbe47a8>
     f0c:	03560111 	0x3560111
     f10:	115501f3 	beq	t2,s5,16e0 <_DYNAMIC-0x3fea60>
     f14:	f3035701 	0xf3035701
     f18:	02115601 	0x2115601
     f1c:	3001108d 	andi	at,zero,0x108d
     f20:	148d0211 	bne	a0,t5,1768 <_DYNAMIC-0x3fe9d8>
     f24:	00003001 	movf	a2,zero,$fcc0
     f28:	0002d212 	0x2d212
     f2c:	731a0100 	0x731a0100
     f30:	14000000 	bnez	zero,f34 <_DYNAMIC-0x3ff20c>
     f34:	30004006 	andi	zero,zero,0x4006
     f38:	01000000 	0x1000000
     f3c:	000d849c 	0xd849c
     f40:	04031300 	bgezl	zero,5b44 <_DYNAMIC-0x3fa5fc>
     f44:	1a010000 	0x1a010000
     f48:	00000093 	0x93
     f4c:	0000095e 	0x95e
     f50:	0002fc13 	0x2fc13
     f54:	851a0100 	lh	k0,256(t0)
     f58:	8a00000d 	lwl	zero,13(s0)
     f5c:	13000009 	beqz	t8,f84 <_DYNAMIC-0x3ff1bc>
     f60:	0000044e 	0x44e
     f64:	00931a01 	0x931a01
     f68:	09b60000 	j	6d80000 <_gp+0x6966c90>
     f6c:	38100000 	xori	s0,zero,0x0
     f70:	f8004006 	sdc2	$0,16390(zero)
     f74:	1100000e 	beqz	t0,fb0 <_DYNAMIC-0x3ff190>
     f78:	0a035401 	j	80d5004 <_gp+0x7cbbc94>
     f7c:	0111253b 	0x111253b
     f80:	01f30355 	0x1f30355
     f84:	56011154 	bnel	s0,at,54d8 <_DYNAMIC-0x3fac68>
     f88:	5501f303 	bnel	t0,at,ffffdb98 <_gp+0xffbe4828>
     f8c:	03570111 	0x3570111
     f90:	115601f3 	beq	t2,s6,1760 <_DYNAMIC-0x3fe9e0>
     f94:	01108d02 	0x1108d02
     f98:	8d021130 	lw	v0,4400(t0)
     f9c:	00300114 	0x300114
     fa0:	040d1a00 	0x40d1a00
     fa4:	00000d84 	0xd84
     fa8:	00049916 	0x49916
     fac:	e4150100 	swc1	$f21,256(zero)
     fb0:	30004005 	andi	zero,zero,0x4005
     fb4:	01000000 	0x1000000
     fb8:	000dff9c 	0xdff9c
     fbc:	03b61300 	0x3b61300
     fc0:	15010000 	bne	t0,at,fc4 <_DYNAMIC-0x3ff17c>
     fc4:	00000210 	0x210
     fc8:	000009e2 	0x9e2
     fcc:	00747014 	0x747014
     fd0:	00731501 	0x731501
     fd4:	0a0e0000 	j	8380000 <_gp+0x7f66c90>
     fd8:	60130000 	0x60130000
     fdc:	01000002 	0x1000002
     fe0:	00021015 	0x21015
     fe4:	000a3a00 	sll	a3,t2,0x8
     fe8:	06081000 	tgei	s0,4096
     fec:	0ef80040 	jal	be00100 <_gp+0xb9e6d90>
     ff0:	01110000 	0x1110000
     ff4:	3a0a0354 	xori	t2,s0,0x354
     ff8:	55011125 	bnel	t0,at,5490 <_DYNAMIC-0x3facb0>
     ffc:	5401f303 	bnel	zero,at,ffffdc0c <_gp+0xffbe489c>
    1000:	03560111 	0x3560111
    1004:	115501f3 	beq	t2,s5,17d4 <_DYNAMIC-0x3fe96c>
    1008:	f3035701 	0xf3035701
    100c:	02115601 	0x2115601
    1010:	3001108d 	andi	at,zero,0x108d
    1014:	148d0211 	bne	a0,t5,185c <_DYNAMIC-0x3fe8e4>
    1018:	00003001 	movf	a2,zero,$fcc0
    101c:	00030912 	0x30912
    1020:	8f100100 	lw	s0,256(t8)
    1024:	b400000b 	0xb400000b
    1028:	30004005 	andi	zero,zero,0x4005
    102c:	01000000 	0x1000000
    1030:	000e679c 	0xe679c
    1034:	656b1400 	0x656b1400
    1038:	10010079 	beq	zero,at,1220 <_DYNAMIC-0x3fef20>
    103c:	00000073 	tltu	zero,zero,0x1
    1040:	00000a66 	0xa66
    1044:	00044913 	0x44913
    1048:	73100100 	0x73100100
    104c:	92000000 	lbu	zero,0(s0)
    1050:	1000000a 	b	107c <_DYNAMIC-0x3ff0c4>
    1054:	004005d8 	0x4005d8
    1058:	00000ef8 	0xef8
    105c:	03540111 	0x3540111
    1060:	1125390a 	beq	t1,a1,f48c <_DYNAMIC-0x3f0cb4>
    1064:	f3035501 	0xf3035501
    1068:	01115401 	0x1115401
    106c:	01f30356 	0x1f30356
    1070:	57011155 	bnel	t8,at,55c8 <_DYNAMIC-0x3fab78>
    1074:	02113001 	movt	a2,s0,$fcc4
    1078:	3001108d 	andi	at,zero,0x108d
    107c:	148d0211 	bne	a0,t5,18c4 <_DYNAMIC-0x3fe87c>
    1080:	00003001 	movf	a2,zero,$fcc0
    1084:	0003f812 	0x3f812
    1088:	930a0100 	lbu	t2,256(t8)
    108c:	84000000 	lh	zero,0(zero)
    1090:	30004005 	andi	zero,zero,0x4005
    1094:	01000000 	0x1000000
    1098:	000ead9c 	0xead9c
    109c:	05a81000 	tgei	t5,4096
    10a0:	0ef80040 	jal	be00100 <_gp+0xb9e6d90>
    10a4:	01110000 	0x1110000
    10a8:	380a0354 	xori	t2,zero,0x354
    10ac:	55011125 	bnel	t0,at,5544 <_DYNAMIC-0x3fabfc>
    10b0:	01113001 	movt	a2,t0,$fcc4
    10b4:	11300156 	beq	t1,s0,1610 <_DYNAMIC-0x3feb30>
    10b8:	30015701 	andi	at,zero,0x5701
    10bc:	108d0211 	beq	a0,t5,1904 <_DYNAMIC-0x3fe83c>
    10c0:	02113001 	movt	a2,s0,$fcc4
    10c4:	3001148d 	andi	at,zero,0x148d
    10c8:	d6160000 	ldc1	$f22,0(s0)
    10cc:	01000003 	0x1000003
    10d0:	40055405 	0x40055405
    10d4:	00003000 	sll	a2,zero,0x0
    10d8:	f89c0100 	sdc2	$28,256(a0)
    10dc:	1400000e 	bnez	zero,1118 <_DYNAMIC-0x3ff028>
    10e0:	01006863 	0x1006863
    10e4:	00021605 	0x21605
    10e8:	000abe00 	sll	s7,t2,0x18
    10ec:	05781000 	0x5781000
    10f0:	0ef80040 	jal	be00100 <_gp+0xb9e6d90>
    10f4:	01110000 	0x1110000
    10f8:	370a0354 	ori	t2,t8,0x354
    10fc:	56011125 	bnel	s0,at,5594 <_DYNAMIC-0x3fabac>
    1100:	01113001 	movt	a2,t0,$fcc4
    1104:	11300157 	beq	t1,s0,1664 <_DYNAMIC-0x3feadc>
    1108:	01108d02 	0x1108d02
    110c:	8d021130 	lw	v0,4400(t0)
    1110:	00300114 	0x300114
    1114:	022b1b00 	0x22b1b00
    1118:	022b0000 	0x22b0000
    111c:	2a070000 	slti	a3,s0,0
    1120:	00002200 	sll	a0,zero,0x8
    1124:	43000200 	c0	0x1000200
    1128:	04000002 	bltz	zero,1134 <_DYNAMIC-0x3ff00c>
    112c:	00028301 	0x28301
    1130:	400bfc00 	0x400bfc00
    1134:	400c1c00 	0x400c1c00
    1138:	00053100 	sll	a2,a1,0x4
    113c:	00036000 	sll	t4,v1,0x0
    1140:	00054000 	sll	t0,a1,0x0
    1144:	65800100 	0x65800100
    1148:	04000007 	bltz	zero,1168 <_DYNAMIC-0x3fefd8>
    114c:	00025700 	sll	t2,v0,0x1c
    1150:	af010400 	sw	at,1024(t8)
    1154:	0c000001 	jal	4 <_DYNAMIC-0x40013c>
    1158:	000005b7 	0x5b7
    115c:	00000360 	0x360
    1160:	00400c1c 	0x400c1c
    1164:	00000654 	0x654
    1168:	000002c6 	0x2c6
    116c:	d9060102 	ldc2	$6,258(t0)
    1170:	03000000 	0x3000000
    1174:	000005ad 	0x5ad
    1178:	00372b02 	ror	a1,s7,0xc
    117c:	01020000 	0x1020000
    1180:	0000d708 	0xd708
    1184:	05020200 	bltzl	t0,1988 <_DYNAMIC-0x3fe7b8>
    1188:	0000013b 	0x13b
    118c:	1c070202 	0x1c070202
    1190:	02000001 	movf	zero,s0,$fcc0
    1194:	00050504 	0x50504
    1198:	04020000 	bltzl	zero,119c <_DYNAMIC-0x3fefa4>
    119c:	0000a007 	srav	s4,zero,zero
    11a0:	05080200 	tgei	t0,512
    11a4:	00000000 	nop
    11a8:	9b070802 	lwr	a3,2050(t8)
    11ac:	03000000 	0x3000000
    11b0:	000005af 	0x5af
    11b4:	002c1803 	0x2c1803
    11b8:	68040000 	0x68040000
    11bc:	05000000 	bltz	t0,11c0 <_DYNAMIC-0x3fef80>
    11c0:	6e690504 	0x6e690504
    11c4:	04020074 	bltzl	zero,1398 <_DYNAMIC-0x3feda8>
    11c8:	0000a507 	0xa507
    11cc:	054f0300 	0x54f0300
    11d0:	d8040000 	ldc2	$4,0(zero)
    11d4:	00000053 	mtlhx	zero
    11d8:	2f040802 	sltiu	a0,t8,2050
    11dc:	06000001 	bltz	s0,11e4 <_DYNAMIC-0x3fef5c>
    11e0:	0000059f 	0x59f
    11e4:	0102f901 	0x102f901
    11e8:	12500000 	beq	s2,s0,11ec <_DYNAMIC-0x3fef54>
    11ec:	00200040 	0x200040
    11f0:	9c010000 	0x9c010000
    11f4:	00000102 	srl	zero,zero,0x4
    11f8:	00062507 	0x62507
    11fc:	02f90100 	0x2f90100
    1200:	df000001 	ldc3	$0,1(t8)
    1204:	0700000a 	bltz	t8,1230 <_DYNAMIC-0x3fef10>
    1208:	00000639 	0x639
    120c:	0114f901 	0x114f901
    1210:	0b000000 	j	c000000 <_gp+0xbbe6c90>
    1214:	e5080000 	swc1	$f8,0(t0)
    1218:	01000005 	lsa	zero,t0,zero,0x1
    121c:	000102fb 	0x102fb
    1220:	a4030500 	sh	v1,1280(zero)
    1224:	09004113 	j	401044c <_gp+0x3bf70dc>
    1228:	00401264 	0x401264
    122c:	0000011a 	0x11a
    1230:	0354010a 	0x354010a
    1234:	0a5401f3 	j	95007cc <_gp+0x90e745c>
    1238:	f3035501 	0xf3035501
    123c:	010a5501 	0x10a5501
    1240:	a4030556 	sh	v1,1366(zero)
    1244:	00004113 	0x4113
    1248:	08040b00 	j	102c00 <_DYNAMIC-0x2fd540>
    124c:	02000001 	movf	zero,s0,$fcc0
    1250:	00e00801 	movf	at,a3,$fcc0
    1254:	08040000 	j	100000 <_DYNAMIC-0x300140>
    1258:	0b000001 	j	c000004 <_gp+0xbbe6c94>
    125c:	00010f04 	0x10f04
    1260:	057e0600 	0x57e0600
    1264:	d9010000 	ldc2	$1,0(t0)
    1268:	00000102 	srl	zero,zero,0x4
    126c:	004011b8 	0x4011b8
    1270:	00000098 	0x98
    1274:	01b99c01 	0x1b99c01
    1278:	25070000 	addiu	a3,t0,0
    127c:	01000006 	srlv	zero,zero,t0
    1280:	000102d9 	0x102d9
    1284:	000b2100 	sll	a0,t3,0x4
    1288:	06390700 	0x6390700
    128c:	d9010000 	ldc2	$1,0(t0)
    1290:	00000114 	0x114
    1294:	00000b6d 	0xb6d
    1298:	00055607 	0x55607
    129c:	b9d90100 	swr	t9,256(t6)
    12a0:	af000001 	sw	zero,1(t8)
    12a4:	0c00000b 	jal	2c <_DYNAMIC-0x400114>
    12a8:	0000062d 	0x62d
    12ac:	0102dc01 	0x102dc01
    12b0:	0bf10000 	j	fc40000 <_gp+0xf826c90>
    12b4:	e80d0000 	swc2	$13,0(zero)
    12b8:	15004011 	bnez	t0,11300 <_DYNAMIC-0x3eee40>
    12bc:	89000002 	lwl	zero,2(t0)
    12c0:	0a000001 	j	8000004 <_gp+0x7be6c94>
    12c4:	80025401 	lb	v0,21505(zero)
    12c8:	55010a00 	bnel	t0,at,3acc <_DYNAMIC-0x3fc674>
    12cc:	00008102 	srl	s0,zero,0x4
    12d0:	4012000d 	0x4012000d
    12d4:	0001bf00 	sll	s7,at,0x1c
    12d8:	0001a300 	sll	s4,at,0xc
    12dc:	54010a00 	bnel	zero,at,3ae0 <_DYNAMIC-0x3fc660>
    12e0:	0a008002 	j	8020008 <_gp+0x7c06c98>
    12e4:	81025501 	lb	v0,21761(t0)
    12e8:	40090000 	mfc0	t1,c0_index
    12ec:	e5004012 	swc1	$f0,16402(t0)
    12f0:	0a000004 	j	8000010 <_gp+0x7be6ca0>
    12f4:	80025401 	lb	v0,21505(zero)
    12f8:	55010a00 	bnel	t0,at,3afc <_DYNAMIC-0x3fc644>
    12fc:	00003001 	movf	a2,zero,$fcc0
    1300:	0102040b 	0x102040b
    1304:	5f060000 	0x5f060000
    1308:	01000005 	lsa	zero,t0,zero,0x1
    130c:	000102cf 	0x102cf
    1310:	40115000 	mfc0	s1,c0_entryhi
    1314:	00006800 	sll	t5,zero,0x0
    1318:	159c0100 	bne	t4,gp,171c <_DYNAMIC-0x3fea24>
    131c:	0e000002 	jal	8000008 <_gp+0x7be6c98>
    1320:	01003173 	tltu	t0,zero,0xc5
    1324:	000114cf 	0x114cf
    1328:	000c0f00 	sll	at,t4,0x1c
    132c:	32730f00 	andi	s3,s3,0xf00
    1330:	14cf0100 	bne	a2,t7,1734 <_DYNAMIC-0x3fea0c>
    1334:	01000001 	movf	zero,t0,$fcc0
    1338:	00691055 	0x691055
    133c:	0078d001 	movf	k0,v1,$fcc6
    1340:	6a110000 	0x6a110000
    1344:	78d00100 	andi.b	$w4,$w0,0xd0
    1348:	49000000 	bc2f	134c <_DYNAMIC-0x3fedf4>
    134c:	1200000c 	beqz	s0,1380 <_DYNAMIC-0x3fedc0>
    1350:	01007472 	tlt	t0,zero,0x1d1
    1354:	000114d1 	0x114d1
    1358:	00540100 	0x540100
    135c:	00060f06 	0x60f06
    1360:	86c50100 	lh	a1,256(s6)
    1364:	f8000000 	sdc2	$0,0(zero)
    1368:	58004010 	blezl	zero,113ac <_DYNAMIC-0x3eed94>
    136c:	01000000 	0x1000000
    1370:	0002639c 	0x2639c
    1374:	31730e00 	andi	s3,t3,0xe00
    1378:	14c50100 	bne	a2,a1,177c <_DYNAMIC-0x3fe9c4>
    137c:	8a000001 	lwl	zero,1(s0)
    1380:	0f00000c 	jal	c000030 <_gp+0xbbe6cc0>
    1384:	01003273 	tltu	t0,zero,0xc9
    1388:	000114c5 	0x114c5
    138c:	11550100 	beq	t2,s5,1790 <_DYNAMIC-0x3fe9b0>
    1390:	c6010069 	lwc1	$f1,105(s0)
    1394:	00000078 	0x78
    1398:	00000cab 	0xcab
    139c:	01006a11 	0x1006a11
    13a0:	000078c6 	0x78c6
    13a4:	000ceb00 	sll	sp,t4,0xc
    13a8:	a6060000 	sh	a2,0(s0)
    13ac:	01000005 	lsa	zero,t0,zero,0x1
    13b0:	00004c97 	0x4c97
    13b4:	400fec00 	0x400fec00
    13b8:	00010c00 	sll	at,at,0x10
    13bc:	dd9c0100 	ldc3	$28,256(t4)
    13c0:	0e000002 	jal	8000008 <_gp+0x7be6c98>
    13c4:	97010073 	lhu	at,115(t8)
    13c8:	00000114 	0x114
    13cc:	00000d20 	0xd20
    13d0:	0005de13 	0x5de13
    13d4:	b9970100 	swr	s7,256(t4)
    13d8:	01000001 	movf	zero,t0,$fcc0
    13dc:	06340755 	0x6340755
    13e0:	97010000 	lhu	at,0(t8)
    13e4:	00000078 	0x78
    13e8:	00000d3e 	0xd3e
    13ec:	67656e11 	0x67656e11
    13f0:	78990100 	andi.b	$w4,$w0,0x99
    13f4:	7f000000 	ext	zero,t8,0x0,0x1
    13f8:	1100000d 	beqz	t0,1430 <_DYNAMIC-0x3fed10>
    13fc:	006c6176 	tne	v1,t4,0x185
    1400:	004c9a01 	0x4c9a01
    1404:	0dc10000 	jal	7040000 <_gp+0x6c26c90>
    1408:	8c140000 	lw	s4,0(zero)
    140c:	58004010 	blezl	zero,11450 <_DYNAMIC-0x3eecf0>
    1410:	11000000 	beqz	t0,1414 <_DYNAMIC-0x3fed2c>
    1414:	00676964 	0x676964
    1418:	0078b001 	movf	s6,v1,$fcc6
    141c:	0dee0000 	jal	7b80000 <_gp+0x7766c90>
    1420:	00000000 	nop
    1424:	00057606 	0x57606
    1428:	2b8e0100 	slti	t6,gp,256
    142c:	a4000003 	sh	zero,3(zero)
    1430:	4800400f 	0x4800400f
    1434:	01000000 	0x1000000
    1438:	00032b9c 	0x32b9c
    143c:	00730e00 	0x730e00
    1440:	032d8e01 	0x32d8e01
    1444:	0e0c0000 	jal	8300000 <_gp+0x7ee6c90>
    1448:	630e0000 	0x630e0000
    144c:	788e0100 	andi.b	$w4,$w0,0x8e
    1450:	2a000000 	slti	zero,s0,0
    1454:	0e00000e 	jal	8000038 <_gp+0x7be6cc8>
    1458:	8e01006e 	lw	at,110(s0)
    145c:	00000086 	0x86
    1460:	00000e4b 	0xe4b
    1464:	00058c08 	0x58c08
    1468:	2d8f0100 	sltiu	t7,t4,256
    146c:	01000003 	0x1000003
    1470:	04150056 	0x4150056
    1474:	0333040b 	0x333040b
    1478:	06160000 	0x6160000
    147c:	00000591 	0x591
    1480:	00788101 	0x788101
    1484:	0f580000 	jal	d600000 <_gp+0xd1e6c90>
    1488:	004c0040 	0x4c0040
    148c:	9c010000 	0x9c010000
    1490:	00000391 	0x391
    1494:	0031760e 	0x31760e
    1498:	032d8101 	0x32d8101
    149c:	0e6c0000 	jal	9b00000 <_gp+0x96e6c90>
    14a0:	760e0000 	jalx	8380000 <_gp+0x7f66c90>
    14a4:	81010032 	lb	at,50(t0)
    14a8:	0000032d 	0x32d
    14ac:	00000e98 	0xe98
    14b0:	01006e0e 	0x1006e0e
    14b4:	00008681 	0x8681
    14b8:	000ec400 	sll	t8,t6,0x10
    14bc:	31731100 	andi	s3,t3,0x1100
    14c0:	91820100 	lbu	v0,256(t4)
    14c4:	2d000003 	sltiu	zero,t0,3
    14c8:	1200000f 	beqz	s0,1508 <_DYNAMIC-0x3fec38>
    14cc:	01003273 	tltu	t0,zero,0xc9
    14d0:	00039183 	sra	s2,v1,0x6
    14d4:	00550100 	0x550100
    14d8:	0073040b 	0x73040b
    14dc:	67060000 	0x67060000
    14e0:	01000005 	lsa	zero,t0,zero,0x1
    14e4:	00032b7d 	0x32b7d
    14e8:	400f3c00 	0x400f3c00
    14ec:	00001c00 	sll	v1,zero,0x10
    14f0:	fb9c0100 	sdc2	$28,256(gp)
    14f4:	0e000003 	jal	800000c <_gp+0x7be6c9c>
    14f8:	00747364 	0x747364
    14fc:	032b7d01 	0x32b7d01
    1500:	0f4b0000 	jal	d2c0000 <_gp+0xcea6c90>
    1504:	730e0000 	madd	t8,t6
    1508:	01006372 	tlt	t0,zero,0x18d
    150c:	00032d7d 	0x32d7d
    1510:	000f6c00 	sll	t5,t7,0x10
    1514:	006e0e00 	0x6e0e00
    1518:	00867d01 	0x867d01
    151c:	0f8d0000 	jal	e340000 <_gp+0xdf26c90>
    1520:	4c090000 	lwxc1	$f0,t1(zero)
    1524:	fb00400f 	sdc2	$0,16399(t8)
    1528:	0a000003 	j	800000c <_gp+0x7be6c9c>
    152c:	f3035401 	0xf3035401
    1530:	010a5401 	0x10a5401
    1534:	01f30355 	0x1f30355
    1538:	56010a55 	bnel	s0,at,3e90 <_DYNAMIC-0x3fc2b0>
    153c:	5601f303 	bnel	s0,at,ffffe14c <_gp+0xffbe4ddc>
    1540:	c0060000 	ll	a2,0(zero)
    1544:	01000005 	lsa	zero,t0,zero,0x1
    1548:	00032b6b 	0x32b6b
    154c:	400ed000 	mfc0	t6,c0_errctl
    1550:	00006c00 	sll	t5,zero,0x10
    1554:	5a9c0100 	0x5a9c0100
    1558:	0e000004 	jal	8000010 <_gp+0x7be6ca0>
    155c:	00747364 	0x747364
    1560:	032b6b01 	0x32b6b01
    1564:	0fae0000 	jal	eb80000 <_gp+0xe766c90>
    1568:	730e0000 	madd	t8,t6
    156c:	01006372 	tlt	t0,zero,0x18d
    1570:	00032d6b 	0x32d6b
    1574:	000fcc00 	sll	t9,t7,0x10
    1578:	006e0e00 	0x6e0e00
    157c:	00866b01 	0x866b01
    1580:	0ff80000 	jal	fe00000 <_gp+0xf9e6c90>
    1584:	73110000 	madd	t8,s1
    1588:	146c0100 	bne	v1,t4,198c <_DYNAMIC-0x3fe7b4>
    158c:	8b000001 	lwl	zero,1(t8)
    1590:	11000010 	beqz	t0,15d4 <_DYNAMIC-0x3feb6c>
    1594:	6d010064 	0x6d010064
    1598:	00000102 	srl	zero,zero,0x4
    159c:	000010a9 	0x10a9
    15a0:	05980600 	0x5980600
    15a4:	5f010000 	0x5f010000
    15a8:	0000032b 	0x32b
    15ac:	00400ea8 	0x400ea8
    15b0:	00000028 	0x28
    15b4:	04b39c01 	bgezall	a1,fffe85bc <_gp+0xffbcf24c>
    15b8:	760e0000 	jalx	8380000 <_gp+0x7f66c90>
    15bc:	2b5f0100 	slti	ra,k0,256
    15c0:	dd000003 	ldc3	$0,3(t0)
    15c4:	0f000010 	jal	c000040 <_gp+0xbbe6cd0>
    15c8:	5f010063 	0x5f010063
    15cc:	00000078 	0x78
    15d0:	6e0e5501 	0x6e0e5501
    15d4:	865f0100 	lh	ra,256(s2)
    15d8:	fb000000 	sdc2	$0,0(t8)
    15dc:	11000010 	beqz	t0,1620 <_DYNAMIC-0x3feb20>
    15e0:	60010070 	0x60010070
    15e4:	00000102 	srl	zero,zero,0x4
    15e8:	00001129 	0x1129
    15ec:	01006d11 	0x1006d11
    15f0:	00007861 	0x7861
    15f4:	00114700 	sll	t0,s1,0x1c
    15f8:	07060000 	0x7060000
    15fc:	01000006 	srlv	zero,zero,t0
    1600:	00010258 	0x10258
    1604:	400e6c00 	0x400e6c00
    1608:	00003c00 	sll	a3,zero,0x10
    160c:	e59c0100 	swc1	$f28,256(t4)
    1610:	0e000004 	jal	8000010 <_gp+0x7be6ca0>
    1614:	58010073 	0x58010073
    1618:	00000114 	0x114
    161c:	0000117c 	0x117c
    1620:	0100630f 	0x100630f
    1624:	00010858 	0x10858
    1628:	00550100 	0x550100
    162c:	0005d706 	0x5d706
    1630:	024f0100 	0x24f0100
    1634:	20000001 	addi	zero,zero,1
    1638:	4c00400e 	0x4c00400e
    163c:	01000000 	0x1000000
    1640:	0005179c 	0x5179c
    1644:	00730e00 	0x730e00
    1648:	01144f01 	0x1144f01
    164c:	119a0000 	beq	t4,k0,1650 <_DYNAMIC-0x3feaf0>
    1650:	630f0000 	0x630f0000
    1654:	784f0100 	andi.b	$w4,$w0,0x4f
    1658:	01000000 	0x1000000
    165c:	6e060055 	0x6e060055
    1660:	01000005 	lsa	zero,t0,zero,0x1
    1664:	00007844 	0x7844
    1668:	400dc000 	mfc0	t5,c0_depc
    166c:	00006000 	sll	t4,zero,0x0
    1670:	589c0100 	0x589c0100
    1674:	0e000005 	jal	8000014 <_gp+0x7be6ca4>
    1678:	44010070 	0x44010070
    167c:	00000114 	0x114
    1680:	000011b8 	0x11b8
    1684:	0100710e 	0x100710e
    1688:	00011444 	0x11444
    168c:	0011d600 	sll	k0,s1,0x18
    1690:	006e0e00 	0x6e0e00
    1694:	00864401 	0x864401
    1698:	11f40000 	beq	t7,s4,169c <_DYNAMIC-0x3feaa4>
    169c:	06000000 	bltz	s0,16a0 <_DYNAMIC-0x3feaa0>
    16a0:	00000616 	0x616
    16a4:	00783e01 	0x783e01
    16a8:	0d840000 	jal	6100000 <_gp+0x5ce6c90>
    16ac:	003c0040 	0x3c0040
    16b0:	9c010000 	0x9c010000
    16b4:	0000058c 	syscall	0x16
    16b8:	0100700e 	0x100700e
    16bc:	0001143e 	0x1143e
    16c0:	00125100 	sll	t2,s2,0x4
    16c4:	00710e00 	0x710e00
    16c8:	01143e01 	0x1143e01
    16cc:	126f0000 	beq	s3,t7,16d0 <_DYNAMIC-0x3fea70>
    16d0:	06000000 	bltz	s0,16d4 <_DYNAMIC-0x3fea6c>
    16d4:	000005cf 	sync	0x17
    16d8:	00863201 	0x863201
    16dc:	0d300000 	jal	4c00000 <_gp+0x47e6c90>
    16e0:	00540040 	0x540040
    16e4:	9c010000 	0x9c010000
    16e8:	000005e0 	0x5e0
    16ec:	7473640e 	jalx	1cd9038 <_gp+0x18bfcc8>
    16f0:	02320100 	0x2320100
    16f4:	8d000001 	lw	zero,1(t0)
    16f8:	0e000012 	jal	8000048 <_gp+0x7be6cd8>
    16fc:	00637273 	tltu	v1,v1,0x1c9
    1700:	01143201 	0x1143201
    1704:	12b60000 	beq	s5,s6,1708 <_DYNAMIC-0x3fea38>
    1708:	49070000 	bc2tl	$cc1,170c <_DYNAMIC-0x3fea34>
    170c:	01000004 	sllv	zero,zero,t0
    1710:	00008632 	tlt	zero,zero,0x218
    1714:	0012d400 	sll	k0,s2,0x10
    1718:	05c80800 	tgei	t6,2048
    171c:	33010000 	andi	at,t8,0x0
    1720:	00000102 	srl	zero,zero,0x4
    1724:	06005401 	bltz	s0,1672c <_DYNAMIC-0x3e9a14>
    1728:	000005ea 	0x5ea
    172c:	01022401 	0x1022401
    1730:	0cfc0000 	jal	3f00000 <_gp+0x3ae6c90>
    1734:	00340040 	0x340040
    1738:	9c010000 	0x9c010000
    173c:	00000643 	sra	zero,zero,0x19
    1740:	7473640e 	jalx	1cd9038 <_gp+0x18bfcc8>
    1744:	02240100 	0x2240100
    1748:	f2000001 	0xf2000001
    174c:	0e000012 	jal	8000048 <_gp+0x7be6cd8>
    1750:	00637273 	tltu	v1,v1,0x1c9
    1754:	01142401 	0x1142401
    1758:	13100000 	beq	t8,s0,175c <_DYNAMIC-0x3fe9e4>
    175c:	49070000 	bc2tl	$cc1,1760 <_DYNAMIC-0x3fe9e0>
    1760:	01000004 	sllv	zero,zero,t0
    1764:	00008624 	0x8624
    1768:	00132e00 	sll	a1,s3,0x18
    176c:	00691100 	0x691100
    1770:	00862501 	0x862501
    1774:	134f0000 	beq	k0,t7,1778 <_DYNAMIC-0x3fe9c8>
    1778:	72110000 	madd	s0,s1
    177c:	01007465 	0x1007465
    1780:	00010226 	0x10226
    1784:	00139400 	sll	s2,s3,0x10
    1788:	f2060000 	0xf2060000
    178c:	01000005 	lsa	zero,t0,zero,0x1
    1790:	0001021e 	0x1021e
    1794:	400cbc00 	0x400cbc00
    1798:	00004000 	sll	t0,zero,0x0
    179c:	ae9c0100 	sw	gp,256(s4)
    17a0:	0e000006 	jal	8000018 <_gp+0x7be6ca8>
    17a4:	00747364 	0x747364
    17a8:	01021e01 	0x1021e01
    17ac:	13b20000 	beq	sp,s2,17b0 <_DYNAMIC-0x3fe990>
    17b0:	730e0000 	madd	t8,t6
    17b4:	01006372 	tlt	t0,zero,0x18d
    17b8:	0001141e 	0x1141e
    17bc:	0013db00 	sll	k1,s3,0xc
    17c0:	656c1100 	0x656c1100
    17c4:	1f01006e 	0x1f01006e
    17c8:	00000078 	0x78
    17cc:	00001407 	0x1407
    17d0:	400cd80d 	0x400cd80d
    17d4:	00073800 	sll	a3,a3,0x0
    17d8:	00069d00 	sll	s3,a2,0x14
    17dc:	54010a00 	bnel	zero,at,3fe0 <_DYNAMIC-0x3fc160>
    17e0:	00008002 	srl	s0,zero,0x0
    17e4:	400ce409 	0x400ce409
    17e8:	0006ae00 	sll	s5,a2,0x18
    17ec:	55010a00 	bnel	t0,at,3ff0 <_DYNAMIC-0x3fc150>
    17f0:	00008102 	srl	s0,zero,0x4
    17f4:	06000600 	bltz	s0,2ff8 <_DYNAMIC-0x3fd148>
    17f8:	15010000 	bne	t0,at,17fc <_DYNAMIC-0x3fe944>
    17fc:	00000102 	srl	zero,zero,0x4
    1800:	00400c98 	0x400c98
    1804:	00000024 	and	zero,zero,zero
    1808:	06f59c01 	0x6f59c01
    180c:	640e0000 	0x640e0000
    1810:	01007473 	tltu	t0,zero,0x1d1
    1814:	00010215 	0x10215
    1818:	00141a00 	sll	v1,s4,0x8
    181c:	72730e00 	0x72730e00
    1820:	15010063 	bne	t0,at,19b0 <_DYNAMIC-0x3fe790>
    1824:	00000114 	0x114
    1828:	00001438 	0x1438
    182c:	74657211 	jalx	195c844 <_gp+0x15434d4>
    1830:	02160100 	0x2160100
    1834:	56000001 	bnezl	s0,183c <_DYNAMIC-0x3fe904>
    1838:	00000014 	0x14
    183c:	00061d06 	0x61d06
    1840:	780d0100 	andi.b	$w4,$w0,0xd
    1844:	4c000000 	lwxc1	$f0,zero(zero)
    1848:	4c00400c 	0x4c00400c
    184c:	01000000 	0x1000000
    1850:	0007389c 	0x7389c
    1854:	00730e00 	0x730e00
    1858:	01140d01 	0x1140d01
    185c:	14740000 	bne	v1,s4,1860 <_DYNAMIC-0x3fe8e0>
    1860:	49070000 	bc2tl	$cc1,1864 <_DYNAMIC-0x3fe8dc>
    1864:	01000004 	sllv	zero,zero,t0
    1868:	0000860d 	break	0x0,0x218
    186c:	00149200 	sll	s2,s4,0x8
    1870:	006e1100 	0x6e1100
    1874:	00780e01 	0x780e01
    1878:	14e20000 	bne	a3,v0,187c <_DYNAMIC-0x3fe8c4>
    187c:	17000000 	bnez	t8,1880 <_DYNAMIC-0x3fe8c0>
    1880:	000005f9 	0x5f9
    1884:	00780501 	0x780501
    1888:	0c1c0000 	jal	700000 <_gp+0x2e6c90>
    188c:	00300040 	0x300040
    1890:	9c010000 	0x9c010000
    1894:	0100730e 	0x100730e
    1898:	00011405 	0x11405
    189c:	00150d00 	sll	at,s5,0x14
    18a0:	006e1100 	0x6e1100
    18a4:	00780601 	0x780601
    18a8:	152b0000 	bne	t1,t3,18ac <_DYNAMIC-0x3fe894>
    18ac:	00000000 	nop

Disassembly of section .debug_abbrev:

00000000 <.debug_abbrev>:
   0:	25011101 	addiu	at,t0,4353
   4:	030b130e 	0x30b130e
   8:	110e1b0e 	beq	t0,t6,6c44 <_DYNAMIC-0x3f94fc>
   c:	10061201 	beq	zero,a2,4814 <_DYNAMIC-0x3fb92c>
  10:	02000017 	0x2000017
  14:	0b0b0024 	j	c2c0090 <_gp+0xbea6d20>
  18:	0e030b3e 	jal	80c2cf8 <_gp+0x7ca9988>
  1c:	24030000 	li	v1,0
  20:	3e0b0b00 	0x3e0b0b00
  24:	0008030b 	0x8030b
  28:	00130400 	sll	zero,s3,0x10
  2c:	193c0803 	0x193c0803
  30:	34050000 	li	a1,0x0
  34:	3a080300 	xori	t0,s0,0x300
  38:	490b3b0b 	bc2tl	$cc2,ec68 <_DYNAMIC-0x3f14d8>
  3c:	3c193f13 	lui	t9,0x3f13
  40:	06000019 	bltz	s0,a8 <_DYNAMIC-0x400098>
  44:	0b0b000f 	j	c2c003c <_gp+0xbea6ccc>
  48:	00001349 	0x1349
  4c:	03003407 	0x3003407
  50:	3b0b3a0e 	xori	t3,t8,0x3a0e
  54:	3f13490b 	0x3f13490b
  58:	00193c19 	0x193c19
  5c:	00340800 	0x340800
  60:	0b3a0e03 	j	ce8380c <_gp+0xca6a49c>
  64:	13490b3b 	beq	k0,t1,2d54 <_DYNAMIC-0x3fd3ec>
  68:	2e090000 	sltiu	t1,s0,0
  6c:	03193f01 	0x3193f01
  70:	3b0b3a0e 	xori	t3,t8,0x3a0e
  74:	4919270b 	bc2t	$cc6,9ca4 <_DYNAMIC-0x3f649c>
  78:	12011113 	beq	s0,at,44c8 <_DYNAMIC-0x3fbc78>
  7c:	97184006 	lhu	t8,16390(t8)
  80:	00001942 	srl	v1,zero,0x5
  84:	0300340a 	0x300340a
  88:	3b0b3a0e 	xori	t3,t8,0x3a0e
  8c:	0213490b 	0x213490b
  90:	0b000017 	j	c00005c <_gp+0xbbe6cec>
  94:	193f012e 	0x193f012e
  98:	0b3a0e03 	j	ce8380c <_gp+0xca6a49c>
  9c:	13490b3b 	beq	k0,t1,2d8c <_DYNAMIC-0x3fd3b4>
  a0:	1301193c 	beq	t8,at,6594 <_DYNAMIC-0x3f9bac>
  a4:	180c0000 	0x180c0000
  a8:	0d000000 	jal	4000000 <_gp+0x3be6c90>
  ac:	01018289 	0x1018289
  b0:	13010111 	beq	t8,at,4f8 <_DYNAMIC-0x3ffc48>
  b4:	8a0e0000 	lwl	t6,0(s0)
  b8:	02000182 	0x2000182
  bc:	18429118 	0x18429118
  c0:	890f0000 	lwl	t7,0(t0)
  c4:	11000182 	beqz	t0,6d0 <_DYNAMIC-0x3ffa70>
  c8:	10000001 	b	d0 <_DYNAMIC-0x400070>
  cc:	01018289 	0x1018289
  d0:	00000111 	0x111
  d4:	01110100 	0x1110100
  d8:	0b130e25 	j	c4c3894 <_gp+0xc0aa524>
  dc:	0e1b0e03 	jal	86c380c <_gp+0x82aa49c>
  e0:	06120111 	bltzall	s0,528 <_DYNAMIC-0x3ffc18>
  e4:	00001710 	0x1710
  e8:	0b002402 	j	c009008 <_gp+0xbbefc98>
  ec:	030b3e0b 	0x30b3e0b
  f0:	0300000e 	0x300000e
  f4:	0e030016 	jal	80c0058 <_gp+0x7ca6ce8>
  f8:	0b3b0b3a 	j	cec2ce8 <_gp+0xcaa9978>
  fc:	00001349 	0x1349
 100:	0b002404 	j	c009010 <_gp+0xbbefca0>
 104:	030b3e0b 	0x30b3e0b
 108:	05000008 	bltz	t0,12c <_DYNAMIC-0x400014>
 10c:	08030016 	j	c0058 <_DYNAMIC-0x3400e8>
 110:	0b3b0b3a 	j	cec2ce8 <_gp+0xcaa9978>
 114:	00001349 	0x1349
 118:	03011306 	0x3011306
 11c:	3a0b0b0e 	xori	t3,s0,0xb0e
 120:	010b3b0b 	0x10b3b0b
 124:	07000013 	bltz	t8,174 <_DYNAMIC-0x3fffcc>
 128:	0e03000d 	jal	80c0034 <_gp+0x7ca6cc4>
 12c:	0b3b0b3a 	j	cec2ce8 <_gp+0xcaa9978>
 130:	0b381349 	j	ce04d24 <_gp+0xc9eb9b4>
 134:	0d080000 	jal	4200000 <_gp+0x3de6c90>
 138:	3a080300 	xori	t0,s0,0x300
 13c:	490b3b0b 	bc2tl	$cc2,ed6c <_DYNAMIC-0x3f13d4>
 140:	000b3813 	0xb3813
 144:	01010900 	0x1010900
 148:	13011349 	beq	t8,at,4e70 <_DYNAMIC-0x3fb2d0>
 14c:	210a0000 	addi	t2,t0,0
 150:	2f134900 	sltiu	s3,t8,18688
 154:	0b00000b 	j	c00002c <_gp+0xbbe6cbc>
 158:	08030013 	j	c004c <_DYNAMIC-0x3400f4>
 15c:	0000193c 	0x193c
 160:	0300340c 	syscall	0xc00d0
 164:	3b0b3a08 	xori	t3,t8,0x3a08
 168:	3f13490b 	0x3f13490b
 16c:	00193c19 	0x193c19
 170:	000f0d00 	sll	at,t7,0x14
 174:	13490b0b 	beq	k0,t1,2da4 <_DYNAMIC-0x3fd39c>
 178:	0f0e0000 	jal	c380000 <_gp+0xbf66c90>
 17c:	030b0b00 	0x30b0b00
 180:	0f00000e 	jal	c000038 <_gp+0xbbe6cc8>
 184:	193f012e 	0x193f012e
 188:	0b3a0e03 	j	ce8380c <_gp+0xca6a49c>
 18c:	13490b3b 	beq	k0,t1,2e7c <_DYNAMIC-0x3fd2c4>
 190:	06120111 	bltzall	s0,5d8 <_DYNAMIC-0x3ffb68>
 194:	42971840 	c0	0x971840
 198:	00130119 	0x130119
 19c:	82891000 	lb	t1,4096(s4)
 1a0:	01110101 	0x1110101
 1a4:	00001331 	tgeu	zero,zero,0x4c
 1a8:	01828a11 	0x1828a11
 1ac:	91180200 	lbu	t8,512(t0)
 1b0:	00001842 	srl	v1,zero,0x1
 1b4:	3f012e12 	0x3f012e12
 1b8:	3a0e0319 	xori	t6,s0,0x319
 1bc:	270b3b0b 	addiu	t3,t8,15115
 1c0:	11134919 	beq	t0,s3,12628 <_DYNAMIC-0x3edb18>
 1c4:	40061201 	0x40061201
 1c8:	19429718 	0x19429718
 1cc:	00001301 	0x1301
 1d0:	03000513 	0x3000513
 1d4:	3b0b3a0e 	xori	t3,t8,0x3a0e
 1d8:	0213490b 	0x213490b
 1dc:	14000017 	bnez	zero,23c <_DYNAMIC-0x3fff04>
 1e0:	08030005 	j	c0014 <_DYNAMIC-0x34012c>
 1e4:	0b3b0b3a 	j	cec2ce8 <_gp+0xcaa9978>
 1e8:	17021349 	bne	t8,v0,4f10 <_DYNAMIC-0x3fb230>
 1ec:	26150000 	addiu	s5,s0,0
 1f0:	00134900 	sll	t1,s3,0x4
 1f4:	012e1600 	0x12e1600
 1f8:	0e03193f 	jal	80c64fc <_gp+0x7cad18c>
 1fc:	0b3b0b3a 	j	cec2ce8 <_gp+0xcaa9978>
 200:	01111927 	0x1111927
 204:	18400612 	blez	v0,1a50 <_DYNAMIC-0x3fe6f0>
 208:	01194297 	0x1194297
 20c:	17000013 	bnez	t8,25c <_DYNAMIC-0x3ffee4>
 210:	00000018 	mult	zero,zero
 214:	03003418 	0x3003418
 218:	3b0b3a08 	xori	t3,t8,0x3a08
 21c:	0213490b 	0x213490b
 220:	19000018 	blez	t0,284 <_DYNAMIC-0x3ffebc>
 224:	0b0b000f 	j	c2c003c <_gp+0xbea6ccc>
 228:	151a0000 	bne	t0,k0,22c <_DYNAMIC-0x3fff14>
 22c:	00192700 	sll	a0,t9,0x1c
 230:	002e1b00 	0x2e1b00
 234:	193c193f 	0x193c193f
 238:	0e030e6e 	jal	80c39b8 <_gp+0x7caa648>
 23c:	0b3b0b3a 	j	cec2ce8 <_gp+0xcaa9978>
 240:	01000000 	0x1000000
 244:	06100011 	bltzal	s0,28c <_DYNAMIC-0x3ffeb4>
 248:	01120111 	0x1120111
 24c:	0e1b0e03 	jal	86c380c <_gp+0x82aa49c>
 250:	05130e25 	bgezall	t0,3ae8 <_DYNAMIC-0x3fc658>
 254:	01000000 	0x1000000
 258:	0e250111 	jal	8940444 <_gp+0x85270d4>
 25c:	0e030b13 	jal	80c2c4c <_gp+0x7ca98dc>
 260:	01110e1b 	0x1110e1b
 264:	17100612 	bne	t8,s0,1ab0 <_DYNAMIC-0x3fe690>
 268:	24020000 	li	v0,0
 26c:	3e0b0b00 	0x3e0b0b00
 270:	000e030b 	0xe030b
 274:	00160300 	sll	zero,s6,0xc
 278:	0b3a0e03 	j	ce8380c <_gp+0xca6a49c>
 27c:	13490b3b 	beq	k0,t1,2f6c <_DYNAMIC-0x3fd1d4>
 280:	26040000 	addiu	a0,s0,0
 284:	00134900 	sll	t1,s3,0x4
 288:	00240500 	0x240500
 28c:	0b3e0b0b 	j	cf82c2c <_gp+0xcb698bc>
 290:	00000803 	sra	at,zero,0x0
 294:	3f012e06 	0x3f012e06
 298:	3a0e0319 	xori	t6,s0,0x319
 29c:	270b3b0b 	addiu	t3,t8,15115
 2a0:	11134919 	beq	t0,s3,12708 <_DYNAMIC-0x3eda38>
 2a4:	40061201 	0x40061201
 2a8:	19429718 	0x19429718
 2ac:	00001301 	0x1301
 2b0:	03000507 	0x3000507
 2b4:	3b0b3a0e 	xori	t3,t8,0x3a0e
 2b8:	0213490b 	0x213490b
 2bc:	08000017 	j	5c <_DYNAMIC-0x4000e4>
 2c0:	0e030034 	jal	80c00d0 <_gp+0x7ca6d60>
 2c4:	0b3b0b3a 	j	cec2ce8 <_gp+0xcaa9978>
 2c8:	18021349 	0x18021349
 2cc:	89090000 	lwl	t1,0(t0)
 2d0:	11010182 	beq	t0,at,8dc <_DYNAMIC-0x3ff864>
 2d4:	00133101 	0x133101
 2d8:	828a0a00 	lb	t2,2560(s4)
 2dc:	18020001 	0x18020001
 2e0:	00184291 	0x184291
 2e4:	000f0b00 	sll	at,t7,0xc
 2e8:	13490b0b 	beq	k0,t1,2f18 <_DYNAMIC-0x3fd228>
 2ec:	340c0000 	li	t4,0x0
 2f0:	3a0e0300 	xori	t6,s0,0x300
 2f4:	490b3b0b 	bc2tl	$cc2,ef24 <_DYNAMIC-0x3f121c>
 2f8:	00170213 	0x170213
 2fc:	82890d00 	lb	t1,3328(s4)
 300:	01110101 	0x1110101
 304:	13011331 	beq	t8,at,4fcc <_DYNAMIC-0x3fb174>
 308:	050e0000 	tnei	t0,0
 30c:	3a080300 	xori	t0,s0,0x300
 310:	490b3b0b 	bc2tl	$cc2,ef40 <_DYNAMIC-0x3f1200>
 314:	00170213 	0x170213
 318:	00050f00 	sll	at,a1,0x1c
 31c:	0b3a0803 	j	ce8200c <_gp+0xca68c9c>
 320:	13490b3b 	beq	k0,t1,3010 <_DYNAMIC-0x3fd130>
 324:	00001802 	srl	v1,zero,0x0
 328:	03003410 	0x3003410
 32c:	3b0b3a08 	xori	t3,t8,0x3a08
 330:	0013490b 	0x13490b
 334:	00341100 	0x341100
 338:	0b3a0803 	j	ce8200c <_gp+0xca68c9c>
 33c:	13490b3b 	beq	k0,t1,302c <_DYNAMIC-0x3fd114>
 340:	00001702 	srl	v0,zero,0x1c
 344:	03003412 	0x3003412
 348:	3b0b3a08 	xori	t3,t8,0x3a08
 34c:	0213490b 	0x213490b
 350:	13000018 	beqz	t8,3b4 <_DYNAMIC-0x3ffd8c>
 354:	0e030005 	jal	80c0014 <_gp+0x7ca6ca4>
 358:	0b3b0b3a 	j	cec2ce8 <_gp+0xcaa9978>
 35c:	18021349 	0x18021349
 360:	0b140000 	j	c500000 <_gp+0xc0e6c90>
 364:	12011101 	beq	s0,at,476c <_DYNAMIC-0x3fb9d4>
 368:	15000006 	bnez	t0,384 <_DYNAMIC-0x3ffdbc>
 36c:	0b0b000f 	j	c2c003c <_gp+0xbea6ccc>
 370:	26160000 	addiu	s6,s0,0
 374:	17000000 	bnez	t8,378 <_DYNAMIC-0x3ffdc8>
 378:	193f012e 	0x193f012e
 37c:	0b3a0e03 	j	ce8380c <_gp+0xca6a49c>
 380:	19270b3b 	0x19270b3b
 384:	01111349 	0x1111349
 388:	18400612 	blez	v0,1bd4 <_DYNAMIC-0x3fe56c>
 38c:	00194297 	0x194297
	...

Disassembly of section .debug_line:

00000000 <.debug_line>:
   0:	00000064 	0x64
   4:	00310002 	ror	zero,s1,0x0
   8:	01010000 	0x1010000
   c:	000d0efb 	0xd0efb
  10:	01010101 	0x1010101
  14:	01000000 	0x1000000
  18:	2e010000 	sltiu	at,s0,0
  1c:	73752f2e 	0x73752f2e
  20:	00007265 	0x7265
  24:	746e7964 	jalx	1b9e590 <_gp+0x1785220>
  28:	2e747365 	sltiu	s4,s3,29541
  2c:	00000063 	0x63
  30:	62696c00 	0x62696c00
  34:	0100682e 	0x100682e
  38:	00000000 	nop
  3c:	03a80205 	0x3a80205
  40:	15030040 	bne	t0,v1,144 <_DYNAMIC-0x3ffffc>
  44:	15240201 	bne	t1,a0,84c <_DYNAMIC-0x3ff8f4>
  48:	ad087708 	sw	t0,30472(t0)
  4c:	ad08ae08 	sw	t0,-20984(t0)
  50:	ad08ae08 	sw	t0,-20984(t0)
  54:	f3152402 	0xf3152402
  58:	e508af08 	swc1	$f8,-20728(t0)
  5c:	08af0883 	j	2bc220c <_gp+0x27a8e9c>
  60:	027708ae 	0x27708ae
  64:	0101001c 	0x101001c
  68:	00000217 	0x217
  6c:	01770002 	0x1770002
  70:	01010000 	0x1010000
  74:	000d0efb 	0xd0efb
  78:	01010101 	0x1010101
  7c:	01000000 	0x1000000
  80:	63010000 	0x63010000
  84:	72705c3a 	0x72705c3a
  88:	6172676f 	0x6172676f
  8c:	695c317e 	0x695c317e
  90:	6967616d 	0x6967616d
  94:	5c317e6e 	0x5c317e6e
  98:	6c6f6f74 	0x6c6f6f74
  9c:	69616863 	0x69616863
  a0:	6d5c736e 	0x6d5c736e
  a4:	2d737069 	sltiu	s3,t3,28777
  a8:	2d69746d 	sltiu	t1,t3,29805
  ac:	5c666c65 	0x5c666c65
  b0:	37313032 	ori	s1,t9,0x3032
  b4:	2d30312e 	sltiu	s0,t1,12590
  b8:	6d5c3530 	0x6d5c3530
  bc:	2d737069 	sltiu	s3,t3,28777
  c0:	2d69746d 	sltiu	t1,t3,29805
  c4:	5c666c65 	0x5c666c65
  c8:	6c636e69 	0x6c636e69
  cc:	5c656475 	0x5c656475
  d0:	6863616d 	0x6863616d
  d4:	00656e69 	0x656e69
  d8:	705c3a63 	0x705c3a63
  dc:	72676f72 	0x72676f72
  e0:	5c317e61 	0x5c317e61
  e4:	67616d69 	0x67616d69
  e8:	317e6e69 	andi	s8,t3,0x6e69
  ec:	6f6f745c 	0x6f6f745c
  f0:	6168636c 	0x6168636c
  f4:	5c736e69 	0x5c736e69
  f8:	7370696d 	0x7370696d
  fc:	69746d2d 	0x69746d2d
 100:	666c652d 	0x666c652d
 104:	3130325c 	andi	s0,t1,0x325c
 108:	30312e37 	andi	s1,at,0x2e37
 10c:	5c35302d 	0x5c35302d
 110:	7370696d 	0x7370696d
 114:	69746d2d 	0x69746d2d
 118:	666c652d 	0x666c652d
 11c:	636e695c 	0x636e695c
 120:	6564756c 	0x6564756c
 124:	7379735c 	udi12	k1,t9,t6,0xd
 128:	2f2e2e00 	sltiu	t6,t9,11776
 12c:	00636e69 	0x636e69
 130:	705c3a63 	0x705c3a63
 134:	72676f72 	0x72676f72
 138:	5c317e61 	0x5c317e61
 13c:	67616d69 	0x67616d69
 140:	317e6e69 	andi	s8,t3,0x6e69
 144:	6f6f745c 	0x6f6f745c
 148:	6168636c 	0x6168636c
 14c:	5c736e69 	0x5c736e69
 150:	7370696d 	0x7370696d
 154:	69746d2d 	0x69746d2d
 158:	666c652d 	0x666c652d
 15c:	3130325c 	andi	s0,t1,0x325c
 160:	30312e37 	andi	s1,at,0x2e37
 164:	5c35302d 	0x5c35302d
 168:	5c62696c 	0x5c62696c
 16c:	5c636367 	0x5c636367
 170:	7370696d 	0x7370696d
 174:	69746d2d 	0x69746d2d
 178:	666c652d 	0x666c652d
 17c:	332e365c 	andi	t6,t9,0x365c
 180:	695c302e 	0x695c302e
 184:	756c636e 	jalx	5b18db8 <_gp+0x56ffa48>
 188:	00006564 	0x6564
 18c:	63737973 	0x63737973
 190:	5f6c6c61 	0x5f6c6c61
 194:	2e62696c 	sltiu	v0,s3,26988
 198:	00000063 	0x63
 19c:	65645f00 	0x65645f00
 1a0:	6c756166 	0x6c756166
 1a4:	79745f74 	0x79745f74
 1a8:	2e736570 	sltiu	s3,s3,25968
 1ac:	00010068 	0x10068
 1b0:	74735f00 	jalx	1cd7c00 <_gp+0x18be890>
 1b4:	746e6964 	jalx	1b9a590 <_gp+0x1781220>
 1b8:	0200682e 	0x200682e
 1bc:	79740000 	ori.b	$w0,$w0,0x74
 1c0:	2e736570 	sltiu	s3,s3,25968
 1c4:	00030068 	0x30068
 1c8:	61727400 	0x61727400
 1cc:	00682e70 	tge	v1,t0,0xb9
 1d0:	73000003 	0x73000003
 1d4:	72616474 	0x72616474
 1d8:	00682e67 	0x682e67
 1dc:	6c000004 	0x6c000004
 1e0:	682e6269 	0x682e6269
 1e4:	00000000 	nop
 1e8:	02050000 	0x2050000
 1ec:	00400554 	0x400554
 1f0:	ad088317 	sw	t0,-31977(t0)
 1f4:	ad0883bd 	sw	t0,-31811(t0)
 1f8:	ad0883be 	sw	t0,-31810(t0)
 1fc:	ad0883bd 	sw	t0,-31811(t0)
 200:	ad0883bd 	sw	t0,-31811(t0)
 204:	ad0883bd 	sw	t0,-31811(t0)
 208:	e50883bd 	swc1	$f8,-31811(t0)
 20c:	ad0883bd 	sw	t0,-31811(t0)
 210:	ad0883be 	sw	t0,-31810(t0)
 214:	ad0883bd 	sw	t0,-31811(t0)
 218:	ad0883bd 	sw	t0,-31811(t0)
 21c:	ad0883bd 	sw	t0,-31811(t0)
 220:	ad0883bd 	sw	t0,-31811(t0)
 224:	ad0883bd 	sw	t0,-31811(t0)
 228:	ad0883bd 	sw	t0,-31811(t0)
 22c:	ad0883bd 	sw	t0,-31811(t0)
 230:	ad0883be 	sw	t0,-31810(t0)
 234:	833e08bd 	lb	s8,2237(t9)
 238:	83bdad08 	lb	sp,-21240(sp)
 23c:	83bdad08 	lb	sp,-21240(sp)
 240:	83bdad08 	lb	sp,-21240(sp)
 244:	83bdad08 	lb	sp,-21240(sp)
 248:	83bdad08 	lb	sp,-21240(sp)
 24c:	83bcad08 	lb	gp,-21240(sp)
 250:	83bcad08 	lb	gp,-21240(sp)
 254:	83bcad08 	lb	gp,-21240(sp)
 258:	83bcad08 	lb	gp,-21240(sp)
 25c:	83bcad08 	lb	gp,-21240(sp)
 260:	83bcad08 	lb	gp,-21240(sp)
 264:	83bdad08 	lb	sp,-21240(sp)
 268:	83bcad08 	lb	gp,-21240(sp)
 26c:	83bcad08 	lb	gp,-21240(sp)
 270:	83bcad08 	lb	gp,-21240(sp)
 274:	83bcad08 	lb	gp,-21240(sp)
 278:	83bdad08 	lb	sp,-21240(sp)
 27c:	0c02ad08 	jal	ab420 <_DYNAMIC-0x354d20>
 280:	3f010100 	0x3f010100
 284:	02000000 	0x2000000
 288:	00002500 	sll	a0,zero,0x14
 28c:	fb010100 	sdc2	$1,256(t8)
 290:	01000d0e 	0x1000d0e
 294:	00010101 	0x10101
 298:	00010000 	sll	zero,at,0x0
 29c:	73000100 	0x73000100
 2a0:	61637379 	0x61637379
 2a4:	775f6c6c 	jalx	d7db1b0 <_gp+0xd3c1e40>
 2a8:	2e706172 	sltiu	s0,s3,24946
 2ac:	00000053 	mtlhx	zero
 2b0:	05000000 	bltz	t0,2b4 <_DYNAMIC-0x3ffe8c>
 2b4:	400bfc02 	0x400bfc02
 2b8:	4b4b1a00 	c2	0x14b1a00
 2bc:	134b4b4b 	beq	k0,t3,12fec <_DYNAMIC-0x3ed154>
 2c0:	00040283 	sra	zero,a0,0xa
 2c4:	02780101 	0x2780101
 2c8:	00020000 	sll	zero,v0,0x0
 2cc:	0000014d 	break	0x0,0x5
 2d0:	0efb0101 	jal	bec0404 <_gp+0xbaa7094>
 2d4:	0101000d 	break	0x101
 2d8:	00000101 	0x101
 2dc:	00000100 	sll	zero,zero,0x4
 2e0:	5c3a6301 	0x5c3a6301
 2e4:	676f7270 	0x676f7270
 2e8:	317e6172 	andi	s8,t3,0x6172
 2ec:	616d695c 	0x616d695c
 2f0:	7e6e6967 	0x7e6e6967
 2f4:	6f745c31 	0x6f745c31
 2f8:	68636c6f 	0x68636c6f
 2fc:	736e6961 	0x736e6961
 300:	70696d5c 	udi12	v1,t1,t5,0x15
 304:	746d2d73 	jalx	1b4b5cc <_gp+0x173225c>
 308:	6c652d69 	0x6c652d69
 30c:	30325c66 	andi	s2,at,0x5c66
 310:	312e3731 	andi	t6,t1,0x3731
 314:	35302d30 	ori	s0,t1,0x2d30
 318:	70696d5c 	udi12	v1,t1,t5,0x15
 31c:	746d2d73 	jalx	1b4b5cc <_gp+0x173225c>
 320:	6c652d69 	0x6c652d69
 324:	6e695c66 	0x6e695c66
 328:	64756c63 	0x64756c63
 32c:	616d5c65 	0x616d5c65
 330:	6e696863 	0x6e696863
 334:	3a630065 	xori	v1,s3,0x65
 338:	6f72705c 	0x6f72705c
 33c:	7e617267 	0x7e617267
 340:	6d695c31 	0x6d695c31
 344:	6e696761 	0x6e696761
 348:	745c317e 	jalx	170c5f8 <_gp+0x12f3288>
 34c:	636c6f6f 	0x636c6f6f
 350:	6e696168 	0x6e696168
 354:	696d5c73 	0x696d5c73
 358:	6d2d7370 	0x6d2d7370
 35c:	652d6974 	0x652d6974
 360:	325c666c 	andi	gp,s2,0x666c
 364:	2e373130 	sltiu	s7,s1,12592
 368:	302d3031 	andi	t5,at,0x3031
 36c:	696d5c35 	0x696d5c35
 370:	6d2d7370 	0x6d2d7370
 374:	652d6974 	0x652d6974
 378:	695c666c 	0x695c666c
 37c:	756c636e 	jalx	5b18db8 <_gp+0x56ffa48>
 380:	735c6564 	0x735c6564
 384:	63007379 	0x63007379
 388:	72705c3a 	0x72705c3a
 38c:	6172676f 	0x6172676f
 390:	695c317e 	0x695c317e
 394:	6967616d 	0x6967616d
 398:	5c317e6e 	0x5c317e6e
 39c:	6c6f6f74 	0x6c6f6f74
 3a0:	69616863 	0x69616863
 3a4:	6d5c736e 	0x6d5c736e
 3a8:	2d737069 	sltiu	s3,t3,28777
 3ac:	2d69746d 	sltiu	t1,t3,29805
 3b0:	5c666c65 	0x5c666c65
 3b4:	37313032 	ori	s1,t9,0x3032
 3b8:	2d30312e 	sltiu	s0,t1,12590
 3bc:	6c5c3530 	0x6c5c3530
 3c0:	675c6269 	0x675c6269
 3c4:	6d5c6363 	0x6d5c6363
 3c8:	2d737069 	sltiu	s3,t3,28777
 3cc:	2d69746d 	sltiu	t1,t3,29805
 3d0:	5c666c65 	0x5c666c65
 3d4:	2e332e36 	sltiu	s3,s1,11830
 3d8:	6e695c30 	0x6e695c30
 3dc:	64756c63 	0x64756c63
 3e0:	73000065 	0x73000065
 3e4:	6e697274 	0x6e697274
 3e8:	00632e67 	0x632e67
 3ec:	5f000000 	bgtzl	t8,3f0 <_DYNAMIC-0x3ffd50>
 3f0:	61666564 	0x61666564
 3f4:	5f746c75 	0x5f746c75
 3f8:	65707974 	0x65707974
 3fc:	00682e73 	tltu	v1,t0,0xb9
 400:	5f000001 	bgtzl	t8,408 <_DYNAMIC-0x3ffd38>
 404:	69647473 	0x69647473
 408:	682e746e 	0x682e746e
 40c:	00000200 	sll	zero,zero,0x8
 410:	64647473 	0x64647473
 414:	682e6665 	0x682e6665
 418:	00000300 	sll	zero,zero,0xc
 41c:	02050000 	0x2050000
 420:	00400c1c 	0x400c1c
 424:	02001516 	0x2001516
 428:	f2060304 	0xf2060304
 42c:	84770806 	lh	s7,2054(v1)
 430:	04020015 	bltzl	zero,488 <_DYNAMIC-0x3ffcb8>
 434:	74080604 	jalx	201810 <_DYNAMIC-0x1fe930>
 438:	03040200 	0x3040200
 43c:	063c08ba 	0x63c08ba
 440:	004e84bd 	0x4e84bd
 444:	06010402 	bgez	s0,1450 <_DYNAMIC-0x3fecf0>
 448:	3f08064a 	0x3f08064a
 44c:	833d0884 	lb	sp,2180(t9)
 450:	177608bc 	bne	k1,s6,2744 <_DYNAMIC-0x3fd9fc>
 454:	464bbcf3 	c1	0x4bbcf3
 458:	83168489 	lb	s6,-31607(t8)
 45c:	00817508 	0x817508
 460:	06010402 	bgez	s0,146c <_DYNAMIC-0x3fecd4>
 464:	4dbc06ba 	0x4dbc06ba
 468:	0813897d 	j	4e25f4 <_gp+0xc9284>
 46c:	0200493d 	0x200493d
 470:	ba060104 	swr	a2,260(s0)
 474:	844bbc06 	lh	t3,-17402(v0)
 478:	49e50813 	0x49e50813
 47c:	01040200 	0x1040200
 480:	02008206 	0x2008206
 484:	06ba0204 	0x6ba0204
 488:	f97f8387 	sdc2	$31,-31865(t3)
 48c:	f381bb13 	0xf381bb13
 490:	8980f185 	lwl	zero,-3707(t4)
 494:	f381bb13 	0xf381bb13
 498:	0818f485 	j	63d214 <_gp+0x223ea4>
 49c:	8486493d 	lh	a2,18749(a0)
 4a0:	04020018 	bltzl	zero,504 <_DYNAMIC-0x3ffc3c>
 4a4:	06ba0601 	0x6ba0601
 4a8:	86b9f3f8 	lh	t9,-3080(s5)
 4ac:	83827903 	lb	v0,30979(gp)
 4b0:	f20903b9 	0xf20903b9
 4b4:	16bc8383 	bne	s5,gp,fffe12c4 <_gp+0xffbc7f54>
 4b8:	8347f483 	lb	a3,-2941(k0)
 4bc:	1384f7f3 	beq	gp,a0,ffffe48c <_gp+0xffbe511c>
 4c0:	bbf1bb4b 	swr	s1,-17589(ra)
 4c4:	0017f6bd 	0x17f6bd
 4c8:	06010402 	bgez	s0,14d4 <_DYNAMIC-0x3fec6c>
 4cc:	86063c08 	lh	a2,15368(s0)
 4d0:	020086bc 	0x20086bc
 4d4:	f2060304 	0xf2060304
 4d8:	7603f706 	jalx	80fdc18 <_gp+0x7ce48a8>
 4dc:	0200bcba 	0x200bcba
 4e0:	f4bd0404 	sdc1	$f29,1028(a1)
 4e4:	0c03b883 	jal	ee20c <_DYNAMIC-0x311f34>
 4e8:	bc4ff382 	cache	0xf,-3198(v0)
 4ec:	08827603 	j	209d80c <_gp+0x1c8449c>
 4f0:	f20a03e8 	0xf20a03e8
 4f4:	15844b84 	bne	t4,a0,13308 <_DYNAMIC-0x3ece38>
 4f8:	02008649 	0x2008649
 4fc:	4bb60104 	c2	0x1b60104
 500:	04020083 	bltzl	zero,710 <_DYNAMIC-0x3ffa30>
 504:	f7bbf102 	sdc1	$f27,-3838(sp)
 508:	00bb1583 	0xbb1583
 50c:	06010402 	bgez	s0,1518 <_DYNAMIC-0x3fec28>
 510:	00830682 	0x830682
 514:	b9020402 	swr	v0,1026(t0)
 518:	040200bb 	bltzl	zero,808 <_DYNAMIC-0x3ff938>
 51c:	f3bff002 	0xf3bff002
 520:	84b00884 	lh	s0,2180(a1)
 524:	8883c2f4 	lwl	v1,-15628(a0)
 528:	0200864b 	0x200864b
 52c:	68030104 	0x68030104
 530:	0f03ac08 	jal	c0eb020 <_gp+0xbcd1cb0>
 534:	f2750382 	0xf2750382
 538:	84821803 	lh	v0,6147(a0)
 53c:	000c02bb 	0xc02bb
 540:	Address 0x0000000000000540 is out of bounds.


Disassembly of section .debug_frame:

00000000 <.debug_frame>:
   0:	0000000c 	syscall
   4:	ffffffff 	sdc3	$31,-1(ra)
   8:	7c010001 	0x7c010001
   c:	001d0d1f 	0x1d0d1f
  10:	00000024 	and	zero,zero,zero
  14:	00000000 	nop
  18:	004003a8 	0x4003a8
  1c:	000001ac 	0x1ac
  20:	54280e50 	bnel	at,t0,3964 <_DYNAMIC-0x3fc7dc>
  24:	0292019f 	0x292019f
  28:	04900391 	bltzal	a0,e70 <_DYNAMIC-0x3ff2d0>
  2c:	0e018803 	jal	806200c <_gp+0x7c48c9c>
  30:	d2d1d000 	0xd2d1d000
  34:	000000df 	0xdf
  38:	0000000c 	syscall
  3c:	ffffffff 	sdc3	$31,-1(ra)
  40:	7c010001 	0x7c010001
  44:	001d0d1f 	0x1d0d1f
  48:	00000018 	mult	zero,zero
  4c:	00000038 	0x38
  50:	00400554 	0x400554
  54:	00000030 	tge	zero,zero
  58:	44200e44 	0x44200e44
  5c:	0e68019f 	jal	9a0067c <_gp+0x95e730c>
  60:	0000df00 	sll	k1,zero,0x1c
  64:	00000018 	mult	zero,zero
  68:	00000038 	0x38
  6c:	00400584 	0x400584
  70:	00000030 	tge	zero,zero
  74:	44200e44 	0x44200e44
  78:	0e68019f 	jal	9a0067c <_gp+0x95e730c>
  7c:	0000df00 	sll	k1,zero,0x1c
  80:	00000018 	mult	zero,zero
  84:	00000038 	0x38
  88:	004005b4 	teq	v0,zero,0x16
  8c:	00000030 	tge	zero,zero
  90:	44200e44 	0x44200e44
  94:	0e68019f 	jal	9a0067c <_gp+0x95e730c>
  98:	0000df00 	sll	k1,zero,0x1c
  9c:	00000018 	mult	zero,zero
  a0:	00000038 	0x38
  a4:	004005e4 	0x4005e4
  a8:	00000030 	tge	zero,zero
  ac:	44200e44 	0x44200e44
  b0:	0e68019f 	jal	9a0067c <_gp+0x95e730c>
  b4:	0000df00 	sll	k1,zero,0x1c
  b8:	00000018 	mult	zero,zero
  bc:	00000038 	0x38
  c0:	00400614 	0x400614
  c4:	00000030 	tge	zero,zero
  c8:	44200e44 	0x44200e44
  cc:	0e68019f 	jal	9a0067c <_gp+0x95e730c>
  d0:	0000df00 	sll	k1,zero,0x1c
  d4:	00000018 	mult	zero,zero
  d8:	00000038 	0x38
  dc:	00400644 	0x400644
  e0:	00000030 	tge	zero,zero
  e4:	44200e44 	0x44200e44
  e8:	0e68019f 	jal	9a0067c <_gp+0x95e730c>
  ec:	0000df00 	sll	k1,zero,0x1c
  f0:	00000018 	mult	zero,zero
  f4:	00000038 	0x38
  f8:	00400674 	teq	v0,zero,0x19
  fc:	00000034 	teq	zero,zero
 100:	44200e44 	0x44200e44
 104:	0e6c019f 	jal	9b0067c <_gp+0x96e730c>
 108:	0000df00 	sll	k1,zero,0x1c
 10c:	00000018 	mult	zero,zero
 110:	00000038 	0x38
 114:	004006a8 	0x4006a8
 118:	00000030 	tge	zero,zero
 11c:	44200e44 	0x44200e44
 120:	0e68019f 	jal	9a0067c <_gp+0x95e730c>
 124:	0000df00 	sll	k1,zero,0x1c
 128:	00000018 	mult	zero,zero
 12c:	00000038 	0x38
 130:	004006d8 	0x4006d8
 134:	00000030 	tge	zero,zero
 138:	44200e44 	0x44200e44
 13c:	0e68019f 	jal	9a0067c <_gp+0x95e730c>
 140:	0000df00 	sll	k1,zero,0x1c
 144:	00000018 	mult	zero,zero
 148:	00000038 	0x38
 14c:	00400708 	0x400708
 150:	00000030 	tge	zero,zero
 154:	44200e44 	0x44200e44
 158:	0e68019f 	jal	9a0067c <_gp+0x95e730c>
 15c:	0000df00 	sll	k1,zero,0x1c
 160:	00000018 	mult	zero,zero
 164:	00000038 	0x38
 168:	00400738 	0x400738
 16c:	00000030 	tge	zero,zero
 170:	44200e44 	0x44200e44
 174:	0e68019f 	jal	9a0067c <_gp+0x95e730c>
 178:	0000df00 	sll	k1,zero,0x1c
 17c:	00000018 	mult	zero,zero
 180:	00000038 	0x38
 184:	00400768 	0x400768
 188:	00000030 	tge	zero,zero
 18c:	44200e44 	0x44200e44
 190:	0e68019f 	jal	9a0067c <_gp+0x95e730c>
 194:	0000df00 	sll	k1,zero,0x1c
 198:	00000018 	mult	zero,zero
 19c:	00000038 	0x38
 1a0:	00400798 	0x400798
 1a4:	00000030 	tge	zero,zero
 1a8:	44200e44 	0x44200e44
 1ac:	0e68019f 	jal	9a0067c <_gp+0x95e730c>
 1b0:	0000df00 	sll	k1,zero,0x1c
 1b4:	00000018 	mult	zero,zero
 1b8:	00000038 	0x38
 1bc:	004007c8 	0x4007c8
 1c0:	00000030 	tge	zero,zero
 1c4:	44200e44 	0x44200e44
 1c8:	0e68019f 	jal	9a0067c <_gp+0x95e730c>
 1cc:	0000df00 	sll	k1,zero,0x1c
 1d0:	00000018 	mult	zero,zero
 1d4:	00000038 	0x38
 1d8:	004007f8 	0x4007f8
 1dc:	00000030 	tge	zero,zero
 1e0:	44200e44 	0x44200e44
 1e4:	0e68019f 	jal	9a0067c <_gp+0x95e730c>
 1e8:	0000df00 	sll	k1,zero,0x1c
 1ec:	00000018 	mult	zero,zero
 1f0:	00000038 	0x38
 1f4:	00400828 	0x400828
 1f8:	00000030 	tge	zero,zero
 1fc:	44200e44 	0x44200e44
 200:	0e68019f 	jal	9a0067c <_gp+0x95e730c>
 204:	0000df00 	sll	k1,zero,0x1c
 208:	00000018 	mult	zero,zero
 20c:	00000038 	0x38
 210:	00400858 	0x400858
 214:	00000030 	tge	zero,zero
 218:	44200e44 	0x44200e44
 21c:	0e68019f 	jal	9a0067c <_gp+0x95e730c>
 220:	0000df00 	sll	k1,zero,0x1c
 224:	00000018 	mult	zero,zero
 228:	00000038 	0x38
 22c:	00400888 	0x400888
 230:	00000044 	0x44
 234:	44280e44 	0x44280e44
 238:	0e7c019f 	jal	9f0067c <_gp+0x9ae730c>
 23c:	0000df00 	sll	k1,zero,0x1c
 240:	00000018 	mult	zero,zero
 244:	00000038 	0x38
 248:	004008cc 	syscall	0x10023
 24c:	00000030 	tge	zero,zero
 250:	44200e44 	0x44200e44
 254:	0e68019f 	jal	9a0067c <_gp+0x95e730c>
 258:	0000df00 	sll	k1,zero,0x1c
 25c:	00000018 	mult	zero,zero
 260:	00000038 	0x38
 264:	004008fc 	0x4008fc
 268:	00000030 	tge	zero,zero
 26c:	44200e44 	0x44200e44
 270:	0e68019f 	jal	9a0067c <_gp+0x95e730c>
 274:	0000df00 	sll	k1,zero,0x1c
 278:	00000018 	mult	zero,zero
 27c:	00000038 	0x38
 280:	0040092c 	0x40092c
 284:	00000030 	tge	zero,zero
 288:	44200e44 	0x44200e44
 28c:	0e68019f 	jal	9a0067c <_gp+0x95e730c>
 290:	0000df00 	sll	k1,zero,0x1c
 294:	00000018 	mult	zero,zero
 298:	00000038 	0x38
 29c:	0040095c 	0x40095c
 2a0:	00000030 	tge	zero,zero
 2a4:	44200e44 	0x44200e44
 2a8:	0e68019f 	jal	9a0067c <_gp+0x95e730c>
 2ac:	0000df00 	sll	k1,zero,0x1c
 2b0:	00000018 	mult	zero,zero
 2b4:	00000038 	0x38
 2b8:	0040098c 	syscall	0x10026
 2bc:	00000030 	tge	zero,zero
 2c0:	44200e44 	0x44200e44
 2c4:	0e68019f 	jal	9a0067c <_gp+0x95e730c>
 2c8:	0000df00 	sll	k1,zero,0x1c
 2cc:	00000018 	mult	zero,zero
 2d0:	00000038 	0x38
 2d4:	004009bc 	0x4009bc
 2d8:	00000030 	tge	zero,zero
 2dc:	44200e44 	0x44200e44
 2e0:	0e68019f 	jal	9a0067c <_gp+0x95e730c>
 2e4:	0000df00 	sll	k1,zero,0x1c
 2e8:	00000018 	mult	zero,zero
 2ec:	00000038 	0x38
 2f0:	004009ec 	0x4009ec
 2f4:	00000030 	tge	zero,zero
 2f8:	44200e44 	0x44200e44
 2fc:	0e68019f 	jal	9a0067c <_gp+0x95e730c>
 300:	0000df00 	sll	k1,zero,0x1c
 304:	00000018 	mult	zero,zero
 308:	00000038 	0x38
 30c:	00400a1c 	0x400a1c
 310:	00000030 	tge	zero,zero
 314:	44200e44 	0x44200e44
 318:	0e68019f 	jal	9a0067c <_gp+0x95e730c>
 31c:	0000df00 	sll	k1,zero,0x1c
 320:	00000018 	mult	zero,zero
 324:	00000038 	0x38
 328:	00400a4c 	syscall	0x10029
 32c:	00000030 	tge	zero,zero
 330:	44200e44 	0x44200e44
 334:	0e68019f 	jal	9a0067c <_gp+0x95e730c>
 338:	0000df00 	sll	k1,zero,0x1c
 33c:	00000018 	mult	zero,zero
 340:	00000038 	0x38
 344:	00400a7c 	0x400a7c
 348:	00000030 	tge	zero,zero
 34c:	44200e44 	0x44200e44
 350:	0e68019f 	jal	9a0067c <_gp+0x95e730c>
 354:	0000df00 	sll	k1,zero,0x1c
 358:	00000018 	mult	zero,zero
 35c:	00000038 	0x38
 360:	00400aac 	0x400aac
 364:	00000030 	tge	zero,zero
 368:	44200e44 	0x44200e44
 36c:	0e68019f 	jal	9a0067c <_gp+0x95e730c>
 370:	0000df00 	sll	k1,zero,0x1c
 374:	00000018 	mult	zero,zero
 378:	00000038 	0x38
 37c:	00400adc 	0x400adc
 380:	00000030 	tge	zero,zero
 384:	44200e44 	0x44200e44
 388:	0e68019f 	jal	9a0067c <_gp+0x95e730c>
 38c:	0000df00 	sll	k1,zero,0x1c
 390:	00000018 	mult	zero,zero
 394:	00000038 	0x38
 398:	00400b0c 	syscall	0x1002c
 39c:	00000030 	tge	zero,zero
 3a0:	44200e44 	0x44200e44
 3a4:	0e68019f 	jal	9a0067c <_gp+0x95e730c>
 3a8:	0000df00 	sll	k1,zero,0x1c
 3ac:	00000018 	mult	zero,zero
 3b0:	00000038 	0x38
 3b4:	00400b3c 	0x400b3c
 3b8:	00000030 	tge	zero,zero
 3bc:	44200e44 	0x44200e44
 3c0:	0e68019f 	jal	9a0067c <_gp+0x95e730c>
 3c4:	0000df00 	sll	k1,zero,0x1c
 3c8:	00000018 	mult	zero,zero
 3cc:	00000038 	0x38
 3d0:	00400b6c 	0x400b6c
 3d4:	00000030 	tge	zero,zero
 3d8:	44200e44 	0x44200e44
 3dc:	0e68019f 	jal	9a0067c <_gp+0x95e730c>
 3e0:	0000df00 	sll	k1,zero,0x1c
 3e4:	00000018 	mult	zero,zero
 3e8:	00000038 	0x38
 3ec:	00400b9c 	0x400b9c
 3f0:	00000030 	tge	zero,zero
 3f4:	44200e44 	0x44200e44
 3f8:	0e68019f 	jal	9a0067c <_gp+0x95e730c>
 3fc:	0000df00 	sll	k1,zero,0x1c
 400:	00000018 	mult	zero,zero
 404:	00000038 	0x38
 408:	00400bcc 	syscall	0x1002f
 40c:	00000030 	tge	zero,zero
 410:	44200e44 	0x44200e44
 414:	0e68019f 	jal	9a0067c <_gp+0x95e730c>
 418:	0000df00 	sll	k1,zero,0x1c
 41c:	0000000c 	syscall
 420:	ffffffff 	sdc3	$31,-1(ra)
 424:	7c010001 	0x7c010001
 428:	001d0d1f 	0x1d0d1f
 42c:	0000000c 	syscall
 430:	0000041c 	0x41c
 434:	00400c1c 	0x400c1c
 438:	00000030 	tge	zero,zero
 43c:	0000000c 	syscall
 440:	0000041c 	0x41c
 444:	00400c4c 	syscall	0x10031
 448:	0000004c 	syscall	0x1
 44c:	0000000c 	syscall
 450:	0000041c 	0x41c
 454:	00400c98 	0x400c98
 458:	00000024 	and	zero,zero,zero
 45c:	0000001c 	0x1c
 460:	0000041c 	0x41c
 464:	00400cbc 	0x400cbc
 468:	00000040 	ssnop
 46c:	4c200e44 	0x4c200e44
 470:	0291019f 	0x291019f
 474:	0e700390 	jal	9c00e40 <_gp+0x97e7ad0>
 478:	dfd1d000 	ldc3	$17,-12288(s8)
 47c:	0000000c 	syscall
 480:	0000041c 	0x41c
 484:	00400cfc 	0x400cfc
 488:	00000034 	teq	zero,zero
 48c:	0000000c 	syscall
 490:	0000041c 	0x41c
 494:	00400d30 	tge	v0,zero,0x34
 498:	00000054 	0x54
 49c:	0000000c 	syscall
 4a0:	0000041c 	0x41c
 4a4:	00400d84 	0x400d84
 4a8:	0000003c 	0x3c
 4ac:	0000000c 	syscall
 4b0:	0000041c 	0x41c
 4b4:	00400dc0 	0x400dc0
 4b8:	00000060 	0x60
 4bc:	0000000c 	syscall
 4c0:	0000041c 	0x41c
 4c4:	00400e20 	0x400e20
 4c8:	0000004c 	syscall	0x1
 4cc:	0000000c 	syscall
 4d0:	0000041c 	0x41c
 4d4:	00400e6c 	0x400e6c
 4d8:	0000003c 	0x3c
 4dc:	0000000c 	syscall
 4e0:	0000041c 	0x41c
 4e4:	00400ea8 	0x400ea8
 4e8:	00000028 	0x28
 4ec:	0000000c 	syscall
 4f0:	0000041c 	0x41c
 4f4:	00400ed0 	0x400ed0
 4f8:	0000006c 	0x6c
 4fc:	00000018 	mult	zero,zero
 500:	0000041c 	0x41c
 504:	00400f3c 	0x400f3c
 508:	0000001c 	0x1c
 50c:	44180e44 	0x44180e44
 510:	0e54019f 	jal	950067c <_gp+0x90e730c>
 514:	0000df00 	sll	k1,zero,0x1c
 518:	0000000c 	syscall
 51c:	0000041c 	0x41c
 520:	00400f58 	0x400f58
 524:	0000004c 	syscall	0x1
 528:	0000000c 	syscall
 52c:	0000041c 	0x41c
 530:	00400fa4 	0x400fa4
 534:	00000048 	0x48
 538:	0000000c 	syscall
 53c:	0000041c 	0x41c
 540:	00400fec 	0x400fec
 544:	0000010c 	syscall	0x4
 548:	0000000c 	syscall
 54c:	0000041c 	0x41c
 550:	004010f8 	0x4010f8
 554:	00000058 	0x58
 558:	0000000c 	syscall
 55c:	0000041c 	0x41c
 560:	00401150 	0x401150
 564:	00000068 	0x68
 568:	00000024 	and	zero,zero,zero
 56c:	0000041c 	0x41c
 570:	004011b8 	0x4011b8
 574:	00000098 	0x98
 578:	50200e44 	beqzl	at,3e8c <_DYNAMIC-0x3fc2b4>
 57c:	0292019f 	0x292019f
 580:	04900391 	bltzal	a0,13c8 <_DYNAMIC-0x3fed78>
 584:	0e0a6402 	jal	8299008 <_gp+0x7e7fc98>
 588:	d2d1d000 	0xd2d1d000
 58c:	00000bdf 	0xbdf
 590:	00000018 	mult	zero,zero
 594:	0000041c 	0x41c
 598:	00401250 	0x401250
 59c:	00000020 	add	zero,zero,zero
 5a0:	44180e44 	0x44180e44
 5a4:	0e58019f 	jal	960067c <_gp+0x91e730c>
 5a8:	0000df00 	sll	k1,zero,0x1c

Disassembly of section .debug_str:

00000000 <.debug_str>:
   0:	676e6f6c 	0x676e6f6c
   4:	6e6f6c20 	0x6e6f6c20
   8:	6e692067 	0x6e692067
   c:	6f6c0074 	0x6f6c0074
  10:	5f6c6163 	0x5f6c6163
  14:	00726176 	tne	v1,s2,0x185
  18:	20554e47 	addi	s5,v0,20039
  1c:	20313143 	addi	s1,at,12611
  20:	2e332e36 	sltiu	s3,s1,11830
  24:	472d2030 	bz.h	$w13,80e8 <_DYNAMIC-0x3f8058>
  28:	2d203020 	sltiu	zero,t1,12320
  2c:	206c656d 	addi	t4,v1,25965
  30:	72616d2d 	0x72616d2d
  34:	6d3d6863 	0x6d3d6863
  38:	636b3431 	0x636b3431
  3c:	736d2d20 	0x736d2d20
  40:	2d74666f 	sltiu	s4,t3,26223
  44:	616f6c66 	0x616f6c66
  48:	6d2d2074 	0x6d2d2074
  4c:	63696261 	0x63696261
  50:	736c6c61 	0x736c6c61
  54:	706d2d20 	0x706d2d20
  58:	2d20746c 	sltiu	zero,t1,29804
  5c:	7370696d 	0x7370696d
  60:	32723233 	andi	s2,s3,0x3233
  64:	736d2d20 	0x736d2d20
  68:	69636e79 	0x69636e79
  6c:	616d2d20 	0x616d2d20
  70:	333d6962 	andi	sp,t9,0x6962
  74:	672d2032 	0x672d2032
  78:	314f2d20 	andi	t7,t2,0x2d20
  7c:	50662d20 	beql	v1,a2,b500 <_DYNAMIC-0x3f4c40>
  80:	72004349 	0x72004349
  84:	6c757365 	0x6c757365
  88:	72003174 	0x72003174
  8c:	6c757365 	0x6c757365
  90:	72003274 	0x72003274
  94:	6c757365 	0x6c757365
  98:	6c003374 	0x6c003374
  9c:	20676e6f 	addi	a3,v1,28271
  a0:	676e6f6c 	0x676e6f6c
  a4:	736e7520 	0x736e7520
  a8:	656e6769 	0x656e6769
  ac:	6e692064 	0x6e692064
  b0:	79640074 	0x79640074
  b4:	7365746e 	0x7365746e
  b8:	00632e74 	teq	v1,v1,0xb9
  bc:	63737973 	0x63737973
  c0:	5f6c6c61 	0x5f6c6c61
  c4:	6e697270 	0x6e697270
  c8:	6c006674 	0x6c006674
  cc:	635f6269 	0x635f6269
  d0:	746e756f 	jalx	1b9d5bc <_gp+0x178424c>
  d4:	75007265 	jalx	401c994 <_gp+0x3c03624>
  d8:	6769736e 	0x6769736e
  dc:	2064656e 	addi	a0,v1,25966
  e0:	72616863 	0x72616863
  e4:	69616d00 	0x69616d00
  e8:	3a45006e 	xori	a1,s2,0x6e
  ec:	6373305c 	0x6373305c
  f0:	6c6f6f68 	0x6c6f6f68
  f4:	7565735c 	jalx	595cd70 <_gp+0x5543a00>
  f8:	5c657363 	0x5c657363
  fc:	65646f63 	0x65646f63
 100:	6573635c 	0x6573635c
 104:	5c736f2d 	0x5c736f2d
 108:	65687375 	0x65687375
 10c:	645c6c6c 	0x645c6c6c
 110:	696c6e79 	0x696c6e79
 114:	745f6b6e 	jalx	17dadb8 <_gp+0x13c1a48>
 118:	00747365 	0x747365
 11c:	726f6873 	0x726f6873
 120:	6e752074 	0x6e752074
 124:	6e676973 	0x6e676973
 128:	69206465 	0x69206465
 12c:	6c00746e 	0x6c00746e
 130:	20676e6f 	addi	a3,v1,28271
 134:	62756f64 	0x62756f64
 138:	7300656c 	0x7300656c
 13c:	74726f68 	jalx	1c9bda0 <_gp+0x1882a30>
 140:	746e6920 	jalx	1b9a480 <_gp+0x1781110>
 144:	7a697300 	nori.b	$w12,$w14,0x69
 148:	70797465 	0x70797465
 14c:	79730065 	st.h	$w1,742(zero)
 150:	6c616373 	0x6c616373
 154:	74725f6c 	jalx	1c97db0 <_gp+0x187ea40>
 158:	7165725f 	udi15	t3,a1,t6,0x9
 15c:	65726975 	0x65726975
 160:	7665645f 	jalx	995917c <_gp+0x953fe0c>
 164:	00656369 	0x656369
 168:	63737973 	0x63737973
 16c:	5f6c6c61 	0x5f6c6c61
 170:	64616572 	0x64616572
 174:	7665645f 	jalx	995917c <_gp+0x953fe0c>
 178:	73797300 	0x73797300
 17c:	6c6c6163 	0x6c6c6163
 180:	6874705f 	0x6874705f
 184:	64616572 	0x64616572
 188:	6572635f 	0x6572635f
 18c:	00657461 	0x657461
 190:	6d6f7270 	0x6d6f7270
 194:	64007470 	0x64007470
 198:	63697665 	0x63697665
 19c:	64695f65 	0x64695f65
 1a0:	73797300 	0x73797300
 1a4:	6c6c6163 	0x6c6c6163
 1a8:	62696c5f 	0x62696c5f
 1ac:	4700632e 	bz.b	$w0,18e68 <_DYNAMIC-0x3e72d8>
 1b0:	4320554e 	c0	0x120554e
 1b4:	36203131 	ori	zero,s1,0x3131
 1b8:	302e332e 	andi	t6,at,0x332e
 1bc:	20472d20 	addi	a3,v0,11552
 1c0:	6d2d2030 	0x6d2d2030
 1c4:	2d206c65 	sltiu	zero,t1,27749
 1c8:	6372616d 	0x6372616d
 1cc:	316d3d68 	andi	t5,t3,0x3d68
 1d0:	20636b34 	addi	v1,v1,27444
 1d4:	6f736d2d 	0x6f736d2d
 1d8:	662d7466 	0x662d7466
 1dc:	74616f6c 	jalx	185bdb0 <_gp+0x1442a40>
 1e0:	706d2d20 	0x706d2d20
 1e4:	2d20746c 	sltiu	zero,t1,29804
 1e8:	7370696d 	0x7370696d
 1ec:	32723233 	andi	s2,s3,0x3233
 1f0:	736d2d20 	0x736d2d20
 1f4:	69636e79 	0x69636e79
 1f8:	616d2d20 	0x616d2d20
 1fc:	333d6962 	andi	sp,t9,0x6962
 200:	672d2032 	0x672d2032
 204:	314f2d20 	andi	t7,t2,0x2d20
 208:	73797300 	0x73797300
 20c:	6c6c6163 	0x6c6c6163
 210:	6165725f 	0x6165725f
 214:	6e696c64 	0x6e696c64
 218:	5f5f0065 	0x5f5f0065
 21c:	746e6975 	jalx	1b9a5d4 <_gp+0x1781264>
 220:	745f3233 	jalx	17cc8cc <_gp+0x13b355c>
 224:	6c617600 	0x6c617600
 228:	6d006575 	0x6d006575
 22c:	63737973 	0x63737973
 230:	006c6c61 	0x6c6c61
 234:	63737973 	0x63737973
 238:	5f6c6c61 	0x5f6c6c61
 23c:	655f7472 	0x655f7472
 240:	00746978 	0x746978
 244:	70617254 	udi4	v1,at,t6,0x9
 248:	6d617266 	0x6d617266
 24c:	79730065 	st.h	$w1,742(zero)
 250:	6c616373 	0x6c616373
 254:	77665f6c 	jalx	d997db0 <_gp+0xd57ea40>
 258:	65746972 	0x65746972
 25c:	74656700 	jalx	1959c00 <_gp+0x1540890>
 260:	76677261 	jalx	99dc984 <_gp+0x95c3614>
 264:	73797300 	0x73797300
 268:	6c6c6163 	0x6c6c6163
 26c:	6972775f 	0x6972775f
 270:	645f6574 	0x645f6574
 274:	73007665 	0x73007665
 278:	61637379 	0x61637379
 27c:	665f6c6c 	0x665f6c6c
 280:	5f656572 	0x5f656572
 284:	6573796d 	0x6573796d
 288:	6400666c 	0x6400666c
 28c:	61767473 	0x61767473
 290:	73797300 	0x73797300
 294:	6c6c6163 	0x6c6c6163
 298:	6d656d5f 	0x6d656d5f
 29c:	70616d5f 	udi15	v1,at,t5,0x15
 2a0:	73797300 	0x73797300
 2a4:	6c6c6163 	0x6c6c6163
 2a8:	5f74725f 	0x5f74725f
 2ac:	656c6572 	0x656c6572
 2b0:	5f657361 	0x5f657361
 2b4:	69766564 	0x69766564
 2b8:	73006563 	0x73006563
 2bc:	64696372 	0x64696372
 2c0:	73797300 	0x73797300
 2c4:	6c6c6163 	0x6c6c6163
 2c8:	6370695f 	0x6370695f
 2cc:	6365725f 	0x6365725f
 2d0:	79730076 	0x79730076
 2d4:	6c616373 	0x6c616373
 2d8:	65735f6c 	0x65735f6c
 2dc:	67705f74 	0x67705f74
 2e0:	6c756166 	0x6c756166
 2e4:	61685f74 	0x61685f74
 2e8:	656c646e 	0x656c646e
 2ec:	79730072 	0x79730072
 2f0:	6c616373 	0x6c616373
 2f4:	72665f6c 	0x72665f6c
 2f8:	00646165 	0x646165
 2fc:	636e7566 	0x636e7566
 300:	30706300 	andi	s0,v1,0x6300
 304:	6370655f 	0x6370655f
 308:	73797300 	0x73797300
 30c:	6c6c6163 	0x6c6c6163
 310:	7465675f 	jalx	1959d7c <_gp+0x1540a0c>
 314:	6d68735f 	0x6d68735f
 318:	73797300 	0x73797300
 31c:	6c6c6163 	0x6c6c6163
 320:	0064635f 	0x64635f
 324:	63737973 	0x63737973
 328:	5f6c6c61 	0x5f6c6c61
 32c:	775f7472 	jalx	d7dd1c8 <_gp+0xd3c3e58>
 330:	65746972 	0x65746972
 334:	7479625f 	jalx	1e5897c <_gp+0x1a3f60c>
 338:	79730065 	st.h	$w1,742(zero)
 33c:	6c616373 	0x6c616373
 340:	6d725f6c 	0x6d725f6c
 344:	616e6600 	0x616e6600
 348:	7300656d 	0x7300656d
 34c:	61637379 	0x61637379
 350:	695f6c6c 	0x695f6c6c
 354:	635f6370 	0x635f6370
 358:	735f6e61 	0x735f6e61
 35c:	00646e65 	0x646e65
 360:	305c3a65 	andi	gp,v0,0x3a65
 364:	6f686373 	0x6f686373
 368:	735c6c6f 	0x735c6c6f
 36c:	73637565 	0x73637565
 370:	6f635c65 	0x6f635c65
 374:	635c6564 	0x635c6564
 378:	6f2d6573 	0x6f2d6573
 37c:	73755c73 	0x73755c73
 380:	6c6c6568 	0x6c6c6568
 384:	6573755c 	0x6573755c
 388:	79730072 	0x79730072
 38c:	6c616373 	0x6c616373
 390:	65675f6c 	0x65675f6c
 394:	77735f74 	jalx	dcd7dd0 <_gp+0xd8bea60>
 398:	68637469 	0x68637469
 39c:	79730073 	0x79730073
 3a0:	6c616373 	0x6c616373
 3a4:	74725f6c 	jalx	1c97db0 <_gp+0x187ea40>
 3a8:	616c635f 	0x616c635f
 3ac:	645f6d69 	0x645f6d69
 3b0:	63697665 	0x63697665
 3b4:	69620065 	0x69620065
 3b8:	7972616e 	0x7972616e
 3bc:	73797300 	0x73797300
 3c0:	6c6c6163 	0x6c6c6163
 3c4:	6d656d5f 	0x6d656d5f
 3c8:	6d6e755f 	0x6d6e755f
 3cc:	65007061 	0x65007061
 3d0:	765f766e 	jalx	97dd9b8 <_gp+0x93c4648>
 3d4:	79730061 	ld.h	$w1,742(zero)
 3d8:	6c616373 	0x6c616373
 3dc:	75705f6c 	jalx	5c17db0 <_gp+0x57fea40>
 3e0:	61686374 	0x61686374
 3e4:	5f5f0072 	0x5f5f0072
 3e8:	6c697562 	0x6c697562
 3ec:	5f6e6974 	0x5f6e6974
 3f0:	6c5f6176 	0x6c5f6176
 3f4:	00747369 	0x747369
 3f8:	63737973 	0x63737973
 3fc:	5f6c6c61 	0x5f6c6c61
 400:	65746567 	0x65746567
 404:	6469766e 	0x6469766e
 408:	73797300 	0x73797300
 40c:	6c6c6163 	0x6c6c6163
 410:	6e61705f 	0x6e61705f
 414:	63006369 	0x63006369
 418:	625f3070 	0x625f3070
 41c:	61766461 	0x61766461
 420:	00726464 	0x726464
 424:	63737973 	0x63737973
 428:	5f6c6c61 	0x5f6c6c61
 42c:	69646b6d 	0x69646b6d
 430:	79730072 	0x79730072
 434:	6c616373 	0x6c616373
 438:	65735f6c 	0x65735f6c
 43c:	6e655f74 	0x6e655f74
 440:	74735f76 	jalx	1cd7dd8 <_gp+0x18bea68>
 444:	73757461 	0x73757461
 448:	7a697300 	nori.b	$w12,$w14,0x69
 44c:	73780065 	0x73780065
 450:	6b636174 	0x6b636174
 454:	00706f74 	teq	v1,s0,0x1bd
 458:	5f307063 	0x5f307063
 45c:	74617473 	jalx	185d1cc <_gp+0x1443e5c>
 460:	73007375 	0x73007375
 464:	61766372 	0x61766372
 468:	72657000 	0x72657000
 46c:	5f5f006d 	0x5f5f006d
 470:	63756e67 	0x63756e67
 474:	5f61765f 	0x5f61765f
 478:	7473696c 	jalx	1cda5b0 <_gp+0x18c1240>
 47c:	695f7500 	0x695f7500
 480:	7300746e 	0x7300746e
 484:	61637379 	0x61637379
 488:	665f6c6c 	0x665f6c6c
 48c:	65617263 	0x65617263
 490:	64006574 	0x64006574
 494:	64697473 	0x64697473
 498:	73797300 	0x73797300
 49c:	6c6c6163 	0x6c6c6163
 4a0:	766e655f 	jalx	9b9957c <_gp+0x978020c>
 4a4:	6572635f 	0x6572635f
 4a8:	00657461 	0x657461
 4ac:	68746170 	0x68746170
 4b0:	73797300 	0x73797300
 4b4:	6c6c6163 	0x6c6c6163
 4b8:	6d656d5f 	0x6d656d5f
 4bc:	6c6c615f 	0x6c6c615f
 4c0:	7300636f 	0x7300636f
 4c4:	61637379 	0x61637379
 4c8:	725f6c6c 	0x725f6c6c
 4cc:	72775f74 	0x72775f74
 4d0:	5f657469 	0x5f657469
 4d4:	6e5f7962 	0x6e5f7962
 4d8:	73006d75 	0x73006d75
 4dc:	61637379 	0x61637379
 4e0:	735f6c6c 	0x735f6c6c
 4e4:	745f7465 	jalx	17dd194 <_gp+0x13c3e24>
 4e8:	66706172 	0x66706172
 4ec:	656d6172 	0x656d6172
 4f0:	73797300 	0x73797300
 4f4:	6c6c6163 	0x6c6c6163
 4f8:	7465735f 	jalx	195cd7c <_gp+0x1543a0c>
 4fc:	64656c5f 	0x64656c5f
 500:	65720073 	0x65720073
 504:	63007367 	0x63007367
 508:	635f3070 	0x635f3070
 50c:	65737561 	0x65737561
 510:	73797300 	0x73797300
 514:	6c6c6163 	0x6c6c6163
 518:	766e655f 	jalx	9b9957c <_gp+0x978020c>
 51c:	6572635f 	0x6572635f
 520:	5f657461 	0x5f657461
 524:	79730031 	0x79730031
 528:	6c616373 	0x6c616373
 52c:	736c5f6c 	0x736c5f6c
 530:	73797300 	0x73797300
 534:	6c6c6163 	0x6c6c6163
 538:	6172775f 	0x6172775f
 53c:	00532e70 	tge	v0,s3,0xb9
 540:	20554e47 	addi	s5,v0,20039
 544:	32205341 	andi	zero,s1,0x5341
 548:	2e38322e 	sltiu	t8,s1,12846
 54c:	73003135 	0x73003135
 550:	5f657a69 	0x5f657a69
 554:	65740074 	0x65740074
 558:	735f706d 	0x735f706d
 55c:	73007274 	0x73007274
 560:	62707274 	0x62707274
 564:	6d006b72 	0x6d006b72
 568:	70636d65 	0x70636d65
 56c:	74730079 	jalx	1cc01e4 <_gp+0x18a6e74>
 570:	6d636e72 	0x6d636e72
 574:	656d0070 	0x656d0070
 578:	6e69666d 	0x6e69666d
 57c:	74730064 	jalx	1cc0190 <_gp+0x18a6e20>
 580:	6b6f7472 	0x6b6f7472
 584:	736e695f 	udi15	k1,t6,t5,0x5
 588:	00656469 	0x656469
 58c:	73646e65 	0x73646e65
 590:	6d656d00 	0x6d656d00
 594:	00706d63 	0x706d63
 598:	736d656d 	0x736d656d
 59c:	73007465 	0x73007465
 5a0:	6f747274 	0x6f747274
 5a4:	7473006b 	jalx	1cc01ac <_gp+0x18a6e3c>
 5a8:	6c6f7472 	0x6c6f7472
 5ac:	755f5f00 	jalx	57d7c00 <_gp+0x53be890>
 5b0:	38746e69 	xori	s4,v1,0x6e69
 5b4:	7300745f 	udi15	t8,zero,t6,0x11
 5b8:	6e697274 	0x6e697274
 5bc:	00632e67 	0x632e67
 5c0:	6d6d656d 	0x6d6d656d
 5c4:	0065766f 	0x65766f
 5c8:	5f747364 	0x5f747364
 5cc:	73006e69 	0x73006e69
 5d0:	636c7274 	0x636c7274
 5d4:	73007970 	0x73007970
 5d8:	68637274 	0x68637274
 5dc:	6e650072 	0x6e650072
 5e0:	72747064 	0x72747064
 5e4:	73616c00 	0x73616c00
 5e8:	74730074 	jalx	1cc01d0 <_gp+0x18a6e60>
 5ec:	70636e72 	0x70636e72
 5f0:	74730079 	jalx	1cc01e4 <_gp+0x18a6e74>
 5f4:	74616372 	jalx	1858dc8 <_gp+0x143fa58>
 5f8:	72747300 	0x72747300
 5fc:	006e656c 	0x6e656c
 600:	63727473 	0x63727473
 604:	73007970 	0x73007970
 608:	69667274 	0x69667274
 60c:	7300646e 	0x7300646e
 610:	70737274 	0x70737274
 614:	7473006e 	jalx	1cc01b8 <_gp+0x18a6e48>
 618:	706d6372 	0x706d6372
 61c:	72747300 	0x72747300
 620:	6e656c6e 	0x6e656c6e
 624:	72747300 	0x72747300
 628:	7272615f 	udi15	s3,s2,t4,0x5
 62c:	745f6200 	jalx	17d8800 <_gp+0x13bf490>
 630:	00706d65 	0x706d65
 634:	65736162 	0x65736162
 638:	6c656400 	0x6c656400
 63c:	74696d69 	jalx	1a5b5a4 <_gp+0x1642234>
 640:	00737265 	0x737265

Disassembly of section .debug_loc:

00000000 <.debug_loc>:
       0:	00000058 	0x58
       4:	00000073 	tltu	zero,zero,0x1
       8:	73520001 	maddu	k0,s2
       c:	1c000000 	bgtz	zero,10 <_DYNAMIC-0x400130>
      10:	01000001 	movf	zero,t0,$fcc0
      14:	00006000 	sll	t4,zero,0x0
      18:	00000000 	nop
      1c:	00900000 	0x900000
      20:	00ab0000 	0xab0000
      24:	00010000 	sll	zero,at,0x0
      28:	0000ab52 	0xab52
      2c:	0001a000 	sll	s4,at,0x0
      30:	61000100 	0x61000100
	...
      3c:	000000c8 	0xc8
      40:	000000eb 	0xeb
      44:	eb520001 	swc2	$18,1(k0)
      48:	9c000000 	0x9c000000
      4c:	01000001 	movf	zero,t0,$fcc0
      50:	019c6200 	0x19c6200
      54:	01ac0000 	0x1ac0000
      58:	00010000 	sll	zero,at,0x0
      5c:	00000052 	mflhxu	zero
      60:	00000000 	nop
      64:	0000fc00 	sll	ra,zero,0x10
      68:	00011700 	sll	v0,at,0x1c
      6c:	52000100 	beqzl	s0,470 <_DYNAMIC-0x3ffcd0>
      70:	00000000 	nop
      74:	00000000 	nop
      78:	00000648 	0x648
      7c:	00000664 	0x664
      80:	64540001 	0x64540001
      84:	6b000006 	0x6b000006
      88:	01000006 	srlv	zero,zero,t0
      8c:	066b5500 	tltiu	s3,21760
      90:	06780000 	0x6780000
      94:	00040000 	sll	zero,a0,0x0
      98:	9f5401f3 	0x9f5401f3
	...
      a4:	00000648 	0x648
      a8:	00000664 	0x664
      ac:	64550001 	0x64550001
      b0:	6b000006 	0x6b000006
      b4:	01000006 	srlv	zero,zero,t0
      b8:	066b5600 	tltiu	s3,22016
      bc:	06780000 	0x6780000
      c0:	00040000 	sll	zero,a0,0x0
      c4:	9f5501f3 	0x9f5501f3
	...
      d0:	00000648 	0x648
      d4:	00000660 	0x660
      d8:	60560001 	0x60560001
      dc:	6b000006 	0x6b000006
      e0:	01000006 	srlv	zero,zero,t0
      e4:	066b5700 	tltiu	s3,22272
      e8:	06780000 	0x6780000
      ec:	00040000 	sll	zero,a0,0x0
      f0:	9f5601f3 	0x9f5601f3
	...
      fc:	00000618 	0x618
     100:	00000634 	teq	zero,zero,0x18
     104:	34540001 	ori	s4,v0,0x1
     108:	3b000006 	xori	zero,t8,0x6
     10c:	01000006 	srlv	zero,zero,t0
     110:	063b5500 	0x63b5500
     114:	06480000 	tgei	s2,0
     118:	00040000 	sll	zero,a0,0x0
     11c:	9f5401f3 	0x9f5401f3
	...
     128:	000005e8 	0x5e8
     12c:	00000604 	0x604
     130:	04540001 	0x4540001
     134:	0b000006 	j	c000018 <_gp+0xbbe6ca8>
     138:	01000006 	srlv	zero,zero,t0
     13c:	060b5500 	tltiu	s0,21760
     140:	06180000 	0x6180000
     144:	00040000 	sll	zero,a0,0x0
     148:	9f5401f3 	0x9f5401f3
	...
     154:	000005e8 	0x5e8
     158:	00000604 	0x604
     15c:	04550001 	0x4550001
     160:	0b000006 	j	c000018 <_gp+0xbbe6ca8>
     164:	01000006 	srlv	zero,zero,t0
     168:	060b5600 	tltiu	s0,22016
     16c:	06180000 	0x6180000
     170:	00040000 	sll	zero,a0,0x0
     174:	9f5501f3 	0x9f5501f3
	...
     180:	000005b8 	0x5b8
     184:	000005d4 	0x5d4
     188:	d4540001 	ldc1	$f20,1(v0)
     18c:	db000005 	ldc2	$0,5(t8)
     190:	01000005 	lsa	zero,t0,zero,0x1
     194:	05db5500 	0x5db5500
     198:	05e80000 	tgei	t7,0
     19c:	00040000 	sll	zero,a0,0x0
     1a0:	9f5401f3 	0x9f5401f3
	...
     1ac:	000005b8 	0x5b8
     1b0:	000005d4 	0x5d4
     1b4:	d4550001 	ldc1	$f21,1(v0)
     1b8:	db000005 	ldc2	$0,5(t8)
     1bc:	01000005 	lsa	zero,t0,zero,0x1
     1c0:	05db5600 	0x5db5600
     1c4:	05e80000 	tgei	t7,0
     1c8:	00040000 	sll	zero,a0,0x0
     1cc:	9f5501f3 	0x9f5501f3
	...
     1d8:	00000588 	0x588
     1dc:	000005a4 	0x5a4
     1e0:	a4540001 	sh	s4,1(v0)
     1e4:	ab000005 	swl	zero,5(t8)
     1e8:	01000005 	lsa	zero,t0,zero,0x1
     1ec:	05ab5500 	tltiu	t5,21760
     1f0:	05b80000 	0x5b80000
     1f4:	00040000 	sll	zero,a0,0x0
     1f8:	9f5401f3 	0x9f5401f3
	...
     204:	00000588 	0x588
     208:	000005a4 	0x5a4
     20c:	a4550001 	sh	s5,1(v0)
     210:	ab000005 	swl	zero,5(t8)
     214:	01000005 	lsa	zero,t0,zero,0x1
     218:	05ab5600 	tltiu	t5,22016
     21c:	05b80000 	0x5b80000
     220:	00040000 	sll	zero,a0,0x0
     224:	9f5501f3 	0x9f5501f3
	...
     230:	00000588 	0x588
     234:	000005a0 	0x5a0
     238:	a0560001 	sb	s6,1(v0)
     23c:	ab000005 	swl	zero,5(t8)
     240:	01000005 	lsa	zero,t0,zero,0x1
     244:	05ab5700 	tltiu	t5,22272
     248:	05b80000 	0x5b80000
     24c:	00040000 	sll	zero,a0,0x0
     250:	9f5601f3 	0x9f5601f3
	...
     25c:	00000558 	0x558
     260:	00000574 	teq	zero,zero,0x15
     264:	74540001 	jalx	1500004 <_gp+0x10e6c94>
     268:	7b000005 	0x7b000005
     26c:	01000005 	lsa	zero,t0,zero,0x1
     270:	057b5500 	0x57b5500
     274:	05880000 	tgei	t4,0
     278:	00040000 	sll	zero,a0,0x0
     27c:	9f5401f3 	0x9f5401f3
	...
     288:	000004f8 	0x4f8
     28c:	00000514 	0x514
     290:	14540001 	bne	v0,s4,298 <_DYNAMIC-0x3ffea8>
     294:	1b000005 	blez	t8,2ac <_DYNAMIC-0x3ffe94>
     298:	01000005 	lsa	zero,t0,zero,0x1
     29c:	051b5500 	0x51b5500
     2a0:	05280000 	tgei	t1,0
     2a4:	00040000 	sll	zero,a0,0x0
     2a8:	9f5401f3 	0x9f5401f3
	...
     2b4:	000004f8 	0x4f8
     2b8:	00000514 	0x514
     2bc:	14550001 	bne	v0,s5,2c4 <_DYNAMIC-0x3ffe7c>
     2c0:	1b000005 	blez	t8,2d8 <_DYNAMIC-0x3ffe68>
     2c4:	01000005 	lsa	zero,t0,zero,0x1
     2c8:	051b5600 	0x51b5600
     2cc:	05280000 	tgei	t1,0
     2d0:	00040000 	sll	zero,a0,0x0
     2d4:	9f5501f3 	0x9f5501f3
	...
     2e0:	000004c8 	0x4c8
     2e4:	000004e4 	0x4e4
     2e8:	e4540001 	swc1	$f20,1(v0)
     2ec:	eb000004 	swc2	$0,4(t8)
     2f0:	01000004 	sllv	zero,zero,t0
     2f4:	04eb5500 	tltiu	a3,21760
     2f8:	04f80000 	0x4f80000
     2fc:	00040000 	sll	zero,a0,0x0
     300:	9f5401f3 	0x9f5401f3
	...
     30c:	00000498 	0x498
     310:	000004b4 	teq	zero,zero,0x12
     314:	b4540001 	0xb4540001
     318:	bb000004 	swr	zero,4(t8)
     31c:	01000004 	sllv	zero,zero,t0
     320:	04bb5500 	0x4bb5500
     324:	04c80000 	tgei	a2,0
     328:	00040000 	sll	zero,a0,0x0
     32c:	9f5401f3 	0x9f5401f3
	...
     338:	00000468 	0x468
     33c:	00000484 	0x484
     340:	84540001 	lh	s4,1(v0)
     344:	8b000004 	lwl	zero,4(t8)
     348:	01000004 	sllv	zero,zero,t0
     34c:	048b5500 	tltiu	a0,21760
     350:	04980000 	0x4980000
     354:	00040000 	sll	zero,a0,0x0
     358:	9f5401f3 	0x9f5401f3
	...
     364:	00000438 	0x438
     368:	00000454 	0x454
     36c:	54540001 	bnel	v0,s4,374 <_DYNAMIC-0x3ffdcc>
     370:	5b000004 	blezl	t8,384 <_DYNAMIC-0x3ffdbc>
     374:	01000004 	sllv	zero,zero,t0
     378:	045b5500 	0x45b5500
     37c:	04680000 	tgei	v1,0
     380:	00040000 	sll	zero,a0,0x0
     384:	9f5401f3 	0x9f5401f3
	...
     390:	00000408 	jr.hb	zero
     394:	00000424 	0x424
     398:	24540001 	addiu	s4,v0,1
     39c:	2b000004 	slti	zero,t8,4
     3a0:	01000004 	sllv	zero,zero,t0
     3a4:	042b5500 	tltiu	at,21760
     3a8:	04380000 	0x4380000
     3ac:	00040000 	sll	zero,a0,0x0
     3b0:	9f5401f3 	0x9f5401f3
	...
     3bc:	000003d8 	0x3d8
     3c0:	000003f4 	teq	zero,zero,0xf
     3c4:	f4540001 	sdc1	$f20,1(v0)
     3c8:	fb000003 	sdc2	$0,3(t8)
     3cc:	01000003 	0x1000003
     3d0:	03fb5500 	0x3fb5500
     3d4:	04080000 	tgei	zero,0
     3d8:	00040000 	sll	zero,a0,0x0
     3dc:	9f5401f3 	0x9f5401f3
	...
     3e8:	000003d8 	0x3d8
     3ec:	000003f4 	teq	zero,zero,0xf
     3f0:	f4550001 	sdc1	$f21,1(v0)
     3f4:	fb000003 	sdc2	$0,3(t8)
     3f8:	01000003 	0x1000003
     3fc:	03fb5600 	0x3fb5600
     400:	04080000 	tgei	zero,0
     404:	00040000 	sll	zero,a0,0x0
     408:	9f5501f3 	0x9f5501f3
	...
     414:	000003d8 	0x3d8
     418:	000003f0 	tge	zero,zero,0xf
     41c:	f0560001 	0xf0560001
     420:	fb000003 	sdc2	$0,3(t8)
     424:	01000003 	0x1000003
     428:	03fb5700 	0x3fb5700
     42c:	04080000 	tgei	zero,0
     430:	00040000 	sll	zero,a0,0x0
     434:	9f5601f3 	0x9f5601f3
	...
     440:	00000378 	0x378
     444:	00000394 	0x394
     448:	94540001 	lhu	s4,1(v0)
     44c:	9b000003 	lwr	zero,3(t8)
     450:	01000003 	0x1000003
     454:	039b5500 	0x39b5500
     458:	03a80000 	0x3a80000
     45c:	00040000 	sll	zero,a0,0x0
     460:	9f5401f3 	0x9f5401f3
	...
     46c:	00000334 	teq	zero,zero,0xc
     470:	00000364 	0x364
     474:	64540001 	0x64540001
     478:	6b000003 	0x6b000003
     47c:	01000003 	0x1000003
     480:	036b5500 	0x36b5500
     484:	03780000 	0x3780000
     488:	00040000 	sll	zero,a0,0x0
     48c:	9f5401f3 	0x9f5401f3
	...
     498:	00000304 	0x304
     49c:	00000320 	0x320
     4a0:	20540001 	addi	s4,v0,1
     4a4:	27000003 	addiu	zero,t8,3
     4a8:	01000003 	0x1000003
     4ac:	03275500 	0x3275500
     4b0:	03340000 	0x3340000
     4b4:	00040000 	sll	zero,a0,0x0
     4b8:	9f5401f3 	0x9f5401f3
	...
     4c4:	00000304 	0x304
     4c8:	00000320 	0x320
     4cc:	20550001 	addi	s5,v0,1
     4d0:	27000003 	addiu	zero,t8,3
     4d4:	01000003 	0x1000003
     4d8:	03275600 	0x3275600
     4dc:	03340000 	0x3340000
     4e0:	00040000 	sll	zero,a0,0x0
     4e4:	9f5501f3 	0x9f5501f3
	...
     4f0:	00000304 	0x304
     4f4:	0000031c 	0x31c
     4f8:	1c560001 	0x1c560001
     4fc:	27000003 	addiu	zero,t8,3
     500:	01000003 	0x1000003
     504:	03275700 	0x3275700
     508:	03340000 	0x3340000
     50c:	00040000 	sll	zero,a0,0x0
     510:	9f5601f3 	0x9f5601f3
	...
     51c:	000002d4 	0x2d4
     520:	000002f0 	tge	zero,zero,0xb
     524:	f0540001 	0xf0540001
     528:	f7000002 	sdc1	$f0,2(t8)
     52c:	01000002 	0x1000002
     530:	02f75500 	0x2f75500
     534:	03040000 	0x3040000
     538:	00040000 	sll	zero,a0,0x0
     53c:	9f5401f3 	0x9f5401f3
	...
     548:	000002d4 	0x2d4
     54c:	000002f0 	tge	zero,zero,0xb
     550:	f0550001 	0xf0550001
     554:	f7000002 	sdc1	$f0,2(t8)
     558:	01000002 	0x1000002
     55c:	02f75600 	0x2f75600
     560:	03040000 	0x3040000
     564:	00040000 	sll	zero,a0,0x0
     568:	9f5501f3 	0x9f5501f3
	...
     574:	000002d4 	0x2d4
     578:	000002ec 	0x2ec
     57c:	ec560001 	swc3	$22,1(v0)
     580:	f7000002 	sdc1	$f0,2(t8)
     584:	01000002 	0x1000002
     588:	02f75700 	0x2f75700
     58c:	03040000 	0x3040000
     590:	00040000 	sll	zero,a0,0x0
     594:	9f5601f3 	0x9f5601f3
	...
     5a0:	00000274 	teq	zero,zero,0x9
     5a4:	00000290 	0x290
     5a8:	90540001 	lbu	s4,1(v0)
     5ac:	97000002 	lhu	zero,2(t8)
     5b0:	01000002 	0x1000002
     5b4:	02975500 	0x2975500
     5b8:	02a40000 	0x2a40000
     5bc:	00040000 	sll	zero,a0,0x0
     5c0:	9f5401f3 	0x9f5401f3
	...
     5cc:	00000244 	0x244
     5d0:	00000260 	0x260
     5d4:	60540001 	0x60540001
     5d8:	67000002 	0x67000002
     5dc:	01000002 	0x1000002
     5e0:	02675500 	0x2675500
     5e4:	02740000 	0x2740000
     5e8:	00040000 	sll	zero,a0,0x0
     5ec:	9f5401f3 	0x9f5401f3
	...
     5f8:	00000244 	0x244
     5fc:	00000260 	0x260
     600:	60550001 	0x60550001
     604:	67000002 	0x67000002
     608:	01000002 	0x1000002
     60c:	02675600 	0x2675600
     610:	02740000 	0x2740000
     614:	00040000 	sll	zero,a0,0x0
     618:	9f5501f3 	0x9f5501f3
	...
     624:	00000244 	0x244
     628:	0000025c 	0x25c
     62c:	5c560001 	0x5c560001
     630:	67000002 	0x67000002
     634:	01000002 	0x1000002
     638:	02675700 	0x2675700
     63c:	02740000 	0x2740000
     640:	00040000 	sll	zero,a0,0x0
     644:	9f5601f3 	0x9f5601f3
	...
     650:	00000244 	0x244
     654:	00000258 	0x258
     658:	58570001 	0x58570001
     65c:	67000002 	0x67000002
     660:	02000002 	0x2000002
     664:	67709100 	0x67709100
     668:	74000002 	jalx	8 <_DYNAMIC-0x400138>
     66c:	04000002 	bltz	zero,678 <_DYNAMIC-0x3ffac8>
     670:	5701f300 	bnel	t8,at,ffffd274 <_gp+0xffbe3f04>
     674:	0000009f 	0x9f
     678:	00000000 	nop
     67c:	00021400 	sll	v0,v0,0x10
     680:	00023000 	sll	a2,v0,0x0
     684:	54000100 	bnezl	zero,a88 <_DYNAMIC-0x3ff6b8>
     688:	00000230 	tge	zero,zero,0x8
     68c:	00000237 	0x237
     690:	37550001 	ori	s5,k0,0x1
     694:	44000002 	0x44000002
     698:	04000002 	bltz	zero,6a4 <_DYNAMIC-0x3ffa9c>
     69c:	5401f300 	bnel	zero,at,ffffd2a0 <_gp+0xffbe3f30>
     6a0:	0000009f 	0x9f
     6a4:	00000000 	nop
     6a8:	0001e400 	sll	gp,at,0x10
     6ac:	00020000 	sll	zero,v0,0x0
     6b0:	54000100 	bnezl	zero,ab4 <_DYNAMIC-0x3ff68c>
     6b4:	00000200 	sll	zero,zero,0x8
     6b8:	00000207 	0x207
     6bc:	07550001 	0x7550001
     6c0:	14000002 	bnez	zero,6cc <_DYNAMIC-0x3ffa74>
     6c4:	04000002 	bltz	zero,6d0 <_DYNAMIC-0x3ffa70>
     6c8:	5401f300 	bnel	zero,at,ffffd2cc <_gp+0xffbe3f5c>
     6cc:	0000009f 	0x9f
     6d0:	00000000 	nop
     6d4:	0001e400 	sll	gp,at,0x10
     6d8:	00020000 	sll	zero,v0,0x0
     6dc:	55000100 	bnezl	t0,ae0 <_DYNAMIC-0x3ff660>
     6e0:	00000200 	sll	zero,zero,0x8
     6e4:	00000207 	0x207
     6e8:	07560001 	0x7560001
     6ec:	14000002 	bnez	zero,6f8 <_DYNAMIC-0x3ffa48>
     6f0:	04000002 	bltz	zero,6fc <_DYNAMIC-0x3ffa44>
     6f4:	5501f300 	bnel	t0,at,ffffd2f8 <_gp+0xffbe3f88>
     6f8:	0000009f 	0x9f
     6fc:	00000000 	nop
     700:	0001b400 	sll	s6,at,0x10
     704:	0001d000 	sll	k0,at,0x0
     708:	54000100 	bnezl	zero,b0c <_DYNAMIC-0x3ff634>
     70c:	000001d0 	0x1d0
     710:	000001d7 	0x1d7
     714:	d7550001 	ldc1	$f21,1(k0)
     718:	e4000001 	swc1	$f0,1(zero)
     71c:	04000001 	bltz	zero,724 <_DYNAMIC-0x3ffa1c>
     720:	5401f300 	bnel	zero,at,ffffd324 <_gp+0xffbe3fb4>
     724:	0000009f 	0x9f
     728:	00000000 	nop
     72c:	0001b400 	sll	s6,at,0x10
     730:	0001d000 	sll	k0,at,0x0
     734:	55000100 	bnezl	t0,b38 <_DYNAMIC-0x3ff608>
     738:	000001d0 	0x1d0
     73c:	000001d7 	0x1d7
     740:	d7560001 	ldc1	$f22,1(k0)
     744:	e4000001 	swc1	$f0,1(zero)
     748:	04000001 	bltz	zero,750 <_DYNAMIC-0x3ff9f0>
     74c:	5501f300 	bnel	t0,at,ffffd350 <_gp+0xffbe3fe0>
     750:	0000009f 	0x9f
     754:	00000000 	nop
     758:	00018400 	sll	s0,at,0x10
     75c:	0001a000 	sll	s4,at,0x0
     760:	54000100 	bnezl	zero,b64 <_DYNAMIC-0x3ff5dc>
     764:	000001a0 	0x1a0
     768:	000001a7 	0x1a7
     76c:	a7550001 	sh	s5,1(k0)
     770:	b4000001 	0xb4000001
     774:	04000001 	bltz	zero,77c <_DYNAMIC-0x3ff9c4>
     778:	5401f300 	bnel	zero,at,ffffd37c <_gp+0xffbe400c>
     77c:	0000009f 	0x9f
     780:	00000000 	nop
     784:	00018400 	sll	s0,at,0x10
     788:	0001a000 	sll	s4,at,0x0
     78c:	55000100 	bnezl	t0,b90 <_DYNAMIC-0x3ff5b0>
     790:	000001a0 	0x1a0
     794:	000001a7 	0x1a7
     798:	a7560001 	sh	s6,1(k0)
     79c:	b4000001 	0xb4000001
     7a0:	04000001 	bltz	zero,7a8 <_DYNAMIC-0x3ff998>
     7a4:	5501f300 	bnel	t0,at,ffffd3a8 <_gp+0xffbe4038>
     7a8:	0000009f 	0x9f
     7ac:	00000000 	nop
     7b0:	00015400 	sll	t2,at,0x10
     7b4:	00017000 	sll	t6,at,0x0
     7b8:	54000100 	bnezl	zero,bbc <_DYNAMIC-0x3ff584>
     7bc:	00000170 	tge	zero,zero,0x5
     7c0:	00000177 	0x177
     7c4:	77550001 	jalx	d540004 <_gp+0xd126c94>
     7c8:	84000001 	lh	zero,1(zero)
     7cc:	04000001 	bltz	zero,7d4 <_DYNAMIC-0x3ff96c>
     7d0:	5401f300 	bnel	zero,at,ffffd3d4 <_gp+0xffbe4064>
     7d4:	0000009f 	0x9f
     7d8:	00000000 	nop
     7dc:	00015400 	sll	t2,at,0x10
     7e0:	00017000 	sll	t6,at,0x0
     7e4:	55000100 	bnezl	t0,be8 <_DYNAMIC-0x3ff558>
     7e8:	00000170 	tge	zero,zero,0x5
     7ec:	00000177 	0x177
     7f0:	77560001 	jalx	d580004 <_gp+0xd166c94>
     7f4:	84000001 	lh	zero,1(zero)
     7f8:	04000001 	bltz	zero,800 <_DYNAMIC-0x3ff940>
     7fc:	5501f300 	bnel	t0,at,ffffd400 <_gp+0xffbe4090>
     800:	0000009f 	0x9f
     804:	00000000 	nop
     808:	00012000 	sll	a0,at,0x0
     80c:	00014000 	sll	t0,at,0x0
     810:	54000100 	bnezl	zero,c14 <_DYNAMIC-0x3ff52c>
     814:	00000140 	pause
     818:	00000147 	0x147
     81c:	47550001 	bz.w	$w21,824 <_DYNAMIC-0x3ff91c>
     820:	54000001 	bnezl	zero,828 <_DYNAMIC-0x3ff918>
     824:	04000001 	bltz	zero,82c <_DYNAMIC-0x3ff914>
     828:	5401f300 	bnel	zero,at,ffffd42c <_gp+0xffbe40bc>
     82c:	0000009f 	0x9f
     830:	00000000 	nop
     834:	00012000 	sll	a0,at,0x0
     838:	00014000 	sll	t0,at,0x0
     83c:	55000100 	bnezl	t0,c40 <_DYNAMIC-0x3ff500>
     840:	00000140 	pause
     844:	00000147 	0x147
     848:	47560001 	bz.w	$w22,850 <_DYNAMIC-0x3ff8f0>
     84c:	54000001 	bnezl	zero,854 <_DYNAMIC-0x3ff8ec>
     850:	04000001 	bltz	zero,858 <_DYNAMIC-0x3ff8e8>
     854:	5501f300 	bnel	t0,at,ffffd458 <_gp+0xffbe40e8>
     858:	0000009f 	0x9f
     85c:	00000000 	nop
     860:	00012000 	sll	a0,at,0x0
     864:	00013c00 	sll	a3,at,0x10
     868:	56000100 	bnezl	s0,c6c <_DYNAMIC-0x3ff4d4>
     86c:	0000013c 	0x13c
     870:	00000147 	0x147
     874:	47570001 	bz.w	$w23,87c <_DYNAMIC-0x3ff8c4>
     878:	54000001 	bnezl	zero,880 <_DYNAMIC-0x3ff8c0>
     87c:	04000001 	bltz	zero,884 <_DYNAMIC-0x3ff8bc>
     880:	5601f300 	bnel	s0,at,ffffd484 <_gp+0xffbe4114>
     884:	0000009f 	0x9f
     888:	00000000 	nop
     88c:	00012000 	sll	a0,at,0x0
     890:	00013800 	sll	a3,at,0x0
     894:	57000100 	bnezl	t8,c98 <_DYNAMIC-0x3ff4a8>
     898:	00000138 	0x138
     89c:	00000147 	0x147
     8a0:	70910002 	mul	zero,a0,s1
     8a4:	00000147 	0x147
     8a8:	00000154 	0x154
     8ac:	01f30004 	sllv	zero,s3,t7
     8b0:	00009f57 	0x9f57
     8b4:	00000000 	nop
     8b8:	01200000 	0x1200000
     8bc:	014c0000 	0x14c0000
     8c0:	00020000 	sll	zero,v0,0x0
     8c4:	014c1091 	0x14c1091
     8c8:	01540000 	0x1540000
     8cc:	00020000 	sll	zero,v0,0x0
     8d0:	0000108d 	break	0x0,0x42
     8d4:	00000000 	nop
     8d8:	00f00000 	0xf00000
     8dc:	010c0000 	0x10c0000
     8e0:	00010000 	sll	zero,at,0x0
     8e4:	00010c54 	0x10c54
     8e8:	00011300 	sll	v0,at,0xc
     8ec:	55000100 	bnezl	t0,cf0 <_DYNAMIC-0x3ff450>
     8f0:	00000113 	0x113
     8f4:	00000120 	0x120
     8f8:	01f30004 	sllv	zero,s3,t7
     8fc:	00009f54 	0x9f54
     900:	00000000 	nop
     904:	00f00000 	0xf00000
     908:	010c0000 	0x10c0000
     90c:	00010000 	sll	zero,at,0x0
     910:	00010c55 	0x10c55
     914:	00011300 	sll	v0,at,0xc
     918:	56000100 	bnezl	s0,d1c <_DYNAMIC-0x3ff424>
     91c:	00000113 	0x113
     920:	00000120 	0x120
     924:	01f30004 	sllv	zero,s3,t7
     928:	00009f55 	0x9f55
     92c:	00000000 	nop
     930:	00f00000 	0xf00000
     934:	01080000 	0x1080000
     938:	00010000 	sll	zero,at,0x0
     93c:	00010856 	0x10856
     940:	00011300 	sll	v0,at,0xc
     944:	57000100 	bnezl	t8,d48 <_DYNAMIC-0x3ff3f8>
     948:	00000113 	0x113
     94c:	00000120 	0x120
     950:	01f30004 	sllv	zero,s3,t7
     954:	00009f56 	0x9f56
     958:	00000000 	nop
     95c:	00c00000 	0xc00000
     960:	00dc0000 	0xdc0000
     964:	00010000 	sll	zero,at,0x0
     968:	0000dc54 	0xdc54
     96c:	0000e300 	sll	gp,zero,0xc
     970:	55000100 	bnezl	t0,d74 <_DYNAMIC-0x3ff3cc>
     974:	000000e3 	0xe3
     978:	000000f0 	tge	zero,zero,0x3
     97c:	01f30004 	sllv	zero,s3,t7
     980:	00009f54 	0x9f54
     984:	00000000 	nop
     988:	00c00000 	0xc00000
     98c:	00dc0000 	0xdc0000
     990:	00010000 	sll	zero,at,0x0
     994:	0000dc55 	0xdc55
     998:	0000e300 	sll	gp,zero,0xc
     99c:	56000100 	bnezl	s0,da0 <_DYNAMIC-0x3ff3a0>
     9a0:	000000e3 	0xe3
     9a4:	000000f0 	tge	zero,zero,0x3
     9a8:	01f30004 	sllv	zero,s3,t7
     9ac:	00009f55 	0x9f55
     9b0:	00000000 	nop
     9b4:	00c00000 	0xc00000
     9b8:	00d80000 	0xd80000
     9bc:	00010000 	sll	zero,at,0x0
     9c0:	0000d856 	0xd856
     9c4:	0000e300 	sll	gp,zero,0xc
     9c8:	57000100 	bnezl	t8,dcc <_DYNAMIC-0x3ff374>
     9cc:	000000e3 	0xe3
     9d0:	000000f0 	tge	zero,zero,0x3
     9d4:	01f30004 	sllv	zero,s3,t7
     9d8:	00009f56 	0x9f56
     9dc:	00000000 	nop
     9e0:	00900000 	0x900000
     9e4:	00ac0000 	0xac0000
     9e8:	00010000 	sll	zero,at,0x0
     9ec:	0000ac54 	0xac54
     9f0:	0000b300 	sll	s6,zero,0xc
     9f4:	55000100 	bnezl	t0,df8 <_DYNAMIC-0x3ff348>
     9f8:	000000b3 	tltu	zero,zero,0x2
     9fc:	000000c0 	ehb
     a00:	01f30004 	sllv	zero,s3,t7
     a04:	00009f54 	0x9f54
     a08:	00000000 	nop
     a0c:	00900000 	0x900000
     a10:	00ac0000 	0xac0000
     a14:	00010000 	sll	zero,at,0x0
     a18:	0000ac55 	0xac55
     a1c:	0000b300 	sll	s6,zero,0xc
     a20:	56000100 	bnezl	s0,e24 <_DYNAMIC-0x3ff31c>
     a24:	000000b3 	tltu	zero,zero,0x2
     a28:	000000c0 	ehb
     a2c:	01f30004 	sllv	zero,s3,t7
     a30:	00009f55 	0x9f55
     a34:	00000000 	nop
     a38:	00900000 	0x900000
     a3c:	00a80000 	0xa80000
     a40:	00010000 	sll	zero,at,0x0
     a44:	0000a856 	0xa856
     a48:	0000b300 	sll	s6,zero,0xc
     a4c:	57000100 	bnezl	t8,e50 <_DYNAMIC-0x3ff2f0>
     a50:	000000b3 	tltu	zero,zero,0x2
     a54:	000000c0 	ehb
     a58:	01f30004 	sllv	zero,s3,t7
     a5c:	00009f56 	0x9f56
     a60:	00000000 	nop
     a64:	00600000 	0x600000
     a68:	007c0000 	0x7c0000
     a6c:	00010000 	sll	zero,at,0x0
     a70:	00007c54 	0x7c54
     a74:	00008300 	sll	s0,zero,0xc
     a78:	55000100 	bnezl	t0,e7c <_DYNAMIC-0x3ff2c4>
     a7c:	00000083 	sra	zero,zero,0x2
     a80:	00000090 	0x90
     a84:	01f30004 	sllv	zero,s3,t7
     a88:	00009f54 	0x9f54
     a8c:	00000000 	nop
     a90:	00600000 	0x600000
     a94:	007c0000 	0x7c0000
     a98:	00010000 	sll	zero,at,0x0
     a9c:	00007c55 	0x7c55
     aa0:	00008300 	sll	s0,zero,0xc
     aa4:	56000100 	bnezl	s0,ea8 <_DYNAMIC-0x3ff298>
     aa8:	00000083 	sra	zero,zero,0x2
     aac:	00000090 	0x90
     ab0:	01f30004 	sllv	zero,s3,t7
     ab4:	00009f55 	0x9f55
	...
     ac0:	001c0000 	sll	zero,gp,0x0
     ac4:	00010000 	sll	zero,at,0x0
     ac8:	00001c54 	0x1c54
     acc:	00003000 	sll	a2,zero,0x0
     ad0:	f3000400 	0xf3000400
     ad4:	009f5401 	0x9f5401
     ad8:	00000000 	nop
     adc:	34000000 	li	zero,0x0
     ae0:	47000006 	bz.b	$w0,afc <_DYNAMIC-0x3ff644>
     ae4:	01000006 	srlv	zero,zero,t0
     ae8:	06475400 	aclr	0x5,1024(s2)
     aec:	06540000 	0x6540000
     af0:	00040000 	sll	zero,a0,0x0
     af4:	9f5401f3 	0x9f5401f3
	...
     b00:	00000634 	teq	zero,zero,0x18
     b04:	00000647 	0x647
     b08:	47550001 	bz.w	$w21,b10 <_DYNAMIC-0x3ff630>
     b0c:	54000006 	bnezl	zero,b28 <_DYNAMIC-0x3ff618>
     b10:	04000006 	bltz	zero,b2c <_DYNAMIC-0x3ff614>
     b14:	5501f300 	bnel	t0,at,ffffd718 <_gp+0xffbe43a8>
     b18:	0000009f 	0x9f
     b1c:	00000000 	nop
     b20:	00059c00 	sll	s3,a1,0x10
     b24:	0005c000 	sll	t8,a1,0x0
     b28:	54000100 	bnezl	zero,f2c <_DYNAMIC-0x3ff214>
     b2c:	000005c0 	sll	zero,zero,0x17
     b30:	000005e4 	0x5e4
     b34:	e4600001 	swc1	$f0,1(v1)
     b38:	f4000005 	sdc1	$f0,5(zero)
     b3c:	01000005 	lsa	zero,t0,zero,0x1
     b40:	05f45200 	0x5f45200
     b44:	05f80000 	0x5f80000
     b48:	00030000 	sll	zero,v1,0x0
     b4c:	149f7f72 	bne	a0,ra,20918 <_DYNAMIC-0x3df828>
     b50:	1c000006 	bgtz	zero,b6c <_DYNAMIC-0x3ff5d4>
     b54:	01000006 	srlv	zero,zero,t0
     b58:	061c6000 	0x61c6000
     b5c:	06230000 	bgezl	s1,b60 <_DYNAMIC-0x3ff5e0>
     b60:	00010000 	sll	zero,at,0x0
     b64:	00000052 	mflhxu	zero
     b68:	00000000 	nop
     b6c:	00059c00 	sll	s3,a1,0x10
     b70:	0005c400 	sll	t8,a1,0x10
     b74:	55000100 	bnezl	t0,f78 <_DYNAMIC-0x3ff1c8>
     b78:	000005c4 	0x5c4
     b7c:	00000608 	0x608
     b80:	08610001 	j	1840004 <_gp+0x1426c94>
     b84:	14000006 	bnez	zero,ba0 <_DYNAMIC-0x3ff5a0>
     b88:	04000006 	bltz	zero,ba4 <_DYNAMIC-0x3ff59c>
     b8c:	5501f300 	bnel	t0,at,ffffd790 <_gp+0xffbe4420>
     b90:	0006149f 	0x6149f
     b94:	00061c00 	sll	v1,a2,0x10
     b98:	55000100 	bnezl	t0,f9c <_DYNAMIC-0x3ff1a4>
     b9c:	0000061c 	0x61c
     ba0:	00000634 	teq	zero,zero,0x18
     ba4:	00610001 	movt	zero,v1,$fcc0
     ba8:	00000000 	nop
     bac:	9c000000 	0x9c000000
     bb0:	cb000005 	lwc2	$0,5(t8)
     bb4:	01000005 	lsa	zero,t0,zero,0x1
     bb8:	05cb5600 	tltiu	t6,22016
     bbc:	06040000 	0x6040000
     bc0:	00010000 	sll	zero,at,0x0
     bc4:	00060462 	0x60462
     bc8:	00061400 	sll	v0,a2,0x10
     bcc:	f3000400 	0xf3000400
     bd0:	149f5601 	bne	a0,ra,163d8 <_DYNAMIC-0x3e9d68>
     bd4:	1c000006 	bgtz	zero,bf0 <_DYNAMIC-0x3ff550>
     bd8:	01000006 	srlv	zero,zero,t0
     bdc:	061c5600 	0x61c5600
     be0:	06340000 	0x6340000
     be4:	00010000 	sll	zero,at,0x0
     be8:	00000062 	0x62
     bec:	00000000 	nop
     bf0:	0005dc00 	sll	k1,a1,0x10
     bf4:	0005f800 	sll	ra,a1,0x0
     bf8:	60000100 	0x60000100
     bfc:	0000061c 	0x61c
     c00:	0000062c 	0x62c
     c04:	00600001 	movf	zero,v1,$fcc0
     c08:	00000000 	nop
     c0c:	34000000 	li	zero,0x0
     c10:	48000005 	mfc2	zero,$0,5
     c14:	01000005 	lsa	zero,t0,zero,0x1
     c18:	05485400 	tgei	t2,21504
     c1c:	058c0000 	teqi	t4,0
     c20:	00040000 	sll	zero,a0,0x0
     c24:	9f5401f3 	0x9f5401f3
     c28:	0000058c 	syscall	0x16
     c2c:	00000594 	0x594
     c30:	94540001 	lhu	s4,1(v0)
     c34:	9c000005 	0x9c000005
     c38:	04000005 	bltz	zero,c50 <_DYNAMIC-0x3ff4f0>
     c3c:	5401f300 	bnel	zero,at,ffffd840 <_gp+0xffbe44d0>
     c40:	0000009f 	0x9f
     c44:	00000000 	nop
     c48:	00054800 	sll	t1,a1,0x0
     c4c:	00055c00 	sll	t3,a1,0x10
     c50:	30000200 	andi	zero,zero,0x200
     c54:	00055c9f 	0x55c9f
     c58:	00056800 	sll	t5,a1,0x0
     c5c:	73000600 	0x73000600
     c60:	1c007500 	bgtz	zero,1e064 <_DYNAMIC-0x3e20dc>
     c64:	0005689f 	0x5689f
     c68:	00057800 	sll	t7,a1,0x0
     c6c:	75000700 	jalx	4001c00 <_gp+0x3be8890>
     c70:	00732000 	0x732000
     c74:	05949f22 	0x5949f22
     c78:	059c0000 	0x59c0000
     c7c:	00020000 	sll	zero,v0,0x0
     c80:	00009f30 	tge	zero,zero,0x27c
     c84:	00000000 	nop
     c88:	04dc0000 	0x4dc0000
     c8c:	04e80000 	tgei	a3,0
     c90:	00010000 	sll	zero,at,0x0
     c94:	0004e854 	0x4e854
     c98:	00053400 	sll	a2,a1,0x10
     c9c:	f3000400 	0xf3000400
     ca0:	009f5401 	0x9f5401
     ca4:	00000000 	nop
     ca8:	dc000000 	ldc3	$0,0(zero)
     cac:	e8000004 	swc2	$0,4(zero)
     cb0:	02000004 	sllv	zero,zero,s0
     cb4:	e89f3000 	swc2	$31,12288(a0)
     cb8:	f0000004 	0xf0000004
     cbc:	01000004 	sllv	zero,zero,t0
     cc0:	04f05700 	bltzal	a3,168c4 <_DYNAMIC-0x3e987c>
     cc4:	04f80000 	0x4f80000
     cc8:	00010000 	sll	zero,at,0x0
     ccc:	0004f852 	0x4f852
     cd0:	00052c00 	sll	a1,a1,0x10
     cd4:	57000100 	bnezl	t8,10d8 <_DYNAMIC-0x3ff068>
     cd8:	0000052c 	0x52c
     cdc:	00000534 	teq	zero,zero,0x14
     ce0:	00520001 	0x520001
     ce4:	00000000 	nop
     ce8:	f8000000 	sdc2	$0,0(zero)
     cec:	10000004 	b	d00 <_DYNAMIC-0x3ff440>
     cf0:	02000005 	lsa	zero,s0,zero,0x1
     cf4:	109f3000 	beq	a0,ra,ccf8 <_DYNAMIC-0x3f3448>
     cf8:	1c000005 	bgtz	zero,d10 <_DYNAMIC-0x3ff430>
     cfc:	06000005 	bltz	s0,d14 <_DYNAMIC-0x3ff42c>
     d00:	75007200 	jalx	401c800 <_gp+0x3c03490>
     d04:	1c9f1c00 	0x1c9f1c00
     d08:	2c000005 	sltiu	zero,zero,5
     d0c:	07000005 	bltz	t8,d24 <_DYNAMIC-0x3ff41c>
     d10:	20007500 	addi	zero,zero,29952
     d14:	9f220072 	0x9f220072
	...
     d20:	000003d0 	0x3d0
     d24:	000003d8 	0x3d8
     d28:	d8540001 	ldc2	$20,1(v0)
     d2c:	dc000003 	ldc3	$0,3(zero)
     d30:	01000004 	sllv	zero,zero,t0
     d34:	00005400 	sll	t2,zero,0x10
     d38:	00000000 	nop
     d3c:	03d00000 	0x3d00000
     d40:	04240000 	0x4240000
     d44:	00010000 	sll	zero,at,0x0
     d48:	00042c56 	0x42c56
     d4c:	00046000 	sll	t4,a0,0x0
     d50:	56000100 	bnezl	s0,1154 <_DYNAMIC-0x3fefec>
     d54:	00000460 	0x460
     d58:	00000468 	0x468
     d5c:	9f380002 	0x9f380002
     d60:	00000468 	0x468
     d64:	00000470 	tge	zero,zero,0x11
     d68:	9f400002 	0x9f400002
     d6c:	00000470 	tge	zero,zero,0x11
     d70:	000004dc 	0x4dc
     d74:	00560001 	0x560001
     d78:	00000000 	nop
     d7c:	d0000000 	0xd0000000
     d80:	00000003 	sra	zero,zero,0x0
     d84:	02000004 	sllv	zero,zero,s0
     d88:	009f3000 	0x9f3000
     d8c:	2c000004 	sltiu	zero,zero,4
     d90:	01000004 	sllv	zero,zero,t0
     d94:	042c5800 	teqi	at,22528
     d98:	043c0000 	0x43c0000
     d9c:	00020000 	sll	zero,v0,0x0
     da0:	043c9f30 	0x43c9f30
     da4:	04440000 	0x4440000
     da8:	00020000 	sll	zero,v0,0x0
     dac:	04449f31 	0x4449f31
     db0:	04dc0000 	0x4dc0000
     db4:	00010000 	sll	zero,at,0x0
     db8:	00000058 	0x58
     dbc:	00000000 	nop
     dc0:	0003d000 	sll	k0,v1,0x0
     dc4:	00047000 	sll	t6,a0,0x0
     dc8:	30000200 	andi	zero,zero,0x200
     dcc:	0004709f 	0x4709f
     dd0:	0004d400 	sll	k0,a0,0x10
     dd4:	52000100 	beqzl	s0,11d8 <_DYNAMIC-0x3fef68>
     dd8:	000004d4 	0x4d4
     ddc:	000004dc 	0x4dc
     de0:	00730004 	sllv	zero,s3,v1
     de4:	00009f1f 	0x9f1f
     de8:	00000000 	nop
     dec:	04840000 	0x4840000
     df0:	04980000 	0x4980000
     df4:	00010000 	sll	zero,at,0x0
     df8:	0004b053 	0x4b053
     dfc:	0004b800 	sll	s7,a0,0x0
     e00:	53000100 	beqzl	t8,1204 <_DYNAMIC-0x3fef3c>
     e04:	00000000 	nop
     e08:	00000000 	nop
     e0c:	00000388 	0x388
     e10:	000003a8 	0x3a8
     e14:	a8540001 	swl	s4,1(v0)
     e18:	d0000003 	0xd0000003
     e1c:	01000003 	0x1000003
     e20:	00005200 	sll	t2,zero,0x8
     e24:	00000000 	nop
     e28:	03880000 	0x3880000
     e2c:	039c0000 	0x39c0000
     e30:	00010000 	sll	zero,at,0x0
     e34:	00039c55 	0x39c55
     e38:	0003d000 	sll	k0,v1,0x0
     e3c:	f3000400 	0xf3000400
     e40:	009f5501 	0x9f5501
     e44:	00000000 	nop
     e48:	88000000 	lwl	zero,0(zero)
     e4c:	8c000003 	lw	zero,3(zero)
     e50:	01000003 	0x1000003
     e54:	038c5600 	0x38c5600
     e58:	03d00000 	0x3d00000
     e5c:	00040000 	sll	zero,a0,0x0
     e60:	9f5601f3 	0x9f5601f3
	...
     e6c:	0000033c 	0x33c
     e70:	00000354 	0x354
     e74:	54540001 	bnel	v0,s4,e7c <_DYNAMIC-0x3ff2c4>
     e78:	80000003 	lb	zero,3(zero)
     e7c:	04000003 	bltz	zero,e8c <_DYNAMIC-0x3ff2b4>
     e80:	5401f300 	bnel	zero,at,ffffda84 <_gp+0xffbe4714>
     e84:	0003809f 	0x3809f
     e88:	00038800 	sll	s1,v1,0x0
     e8c:	54000100 	bnezl	zero,1290 <_DYNAMIC-0x3feeb0>
     e90:	00000000 	nop
     e94:	00000000 	nop
     e98:	0000033c 	0x33c
     e9c:	00000354 	0x354
     ea0:	54550001 	bnel	v0,s5,ea8 <_DYNAMIC-0x3ff298>
     ea4:	80000003 	lb	zero,3(zero)
     ea8:	04000003 	bltz	zero,eb8 <_DYNAMIC-0x3ff288>
     eac:	5501f300 	bnel	t0,at,ffffdab0 <_gp+0xffbe4740>
     eb0:	0003809f 	0x3809f
     eb4:	00038800 	sll	s1,v1,0x0
     eb8:	55000100 	bnezl	t0,12bc <_DYNAMIC-0x3fee84>
     ebc:	00000000 	nop
     ec0:	00000000 	nop
     ec4:	0000033c 	0x33c
     ec8:	0000033c 	0x33c
     ecc:	3c560001 	0x3c560001
     ed0:	4c000003 	mfc3	zero,$0,3
     ed4:	03000003 	0x3000003
     ed8:	9f7f7600 	0x9f7f7600
     edc:	0000034c 	syscall	0xd
     ee0:	00000354 	0x354
     ee4:	01f30006 	srlv	zero,s3,t7
     ee8:	9f1c3156 	0x9f1c3156
     eec:	00000354 	0x354
     ef0:	00000370 	tge	zero,zero,0xd
     ef4:	0074000c 	syscall	0x1d000
     ef8:	5601f320 	bnel	s0,at,ffffdb7c <_gp+0xffbe480c>
     efc:	5401f322 	bnel	zero,at,ffffdb88 <_gp+0xffbe4818>
     f00:	03789f22 	0x3789f22
     f04:	03800000 	0x3800000
     f08:	000c0000 	sll	zero,t4,0x0
     f0c:	f3200074 	0xf3200074
     f10:	f3225601 	0xf3225601
     f14:	9f225401 	0x9f225401
     f18:	00000380 	sll	zero,zero,0xe
     f1c:	00000388 	0x388
     f20:	7f760003 	0x7f760003
     f24:	0000009f 	0x9f
     f28:	00000000 	nop
     f2c:	00033c00 	sll	a3,v1,0x10
     f30:	00037000 	sll	t6,v1,0x0
     f34:	54000100 	bnezl	zero,1338 <_DYNAMIC-0x3fee08>
     f38:	00000378 	0x378
     f3c:	00000388 	0x388
     f40:	00540001 	movf	zero,v0,$fcc5
     f44:	00000000 	nop
     f48:	20000000 	addi	zero,zero,0
     f4c:	2f000003 	sltiu	zero,t8,3
     f50:	01000003 	0x1000003
     f54:	032f5400 	0x32f5400
     f58:	033c0000 	0x33c0000
     f5c:	00040000 	sll	zero,a0,0x0
     f60:	9f5401f3 	0x9f5401f3
	...
     f6c:	00000320 	0x320
     f70:	0000032f 	0x32f
     f74:	2f550001 	sltiu	s5,k0,1
     f78:	3c000003 	lui	zero,0x3
     f7c:	04000003 	bltz	zero,f8c <_DYNAMIC-0x3ff1b4>
     f80:	5501f300 	bnel	t0,at,ffffdb84 <_gp+0xffbe4814>
     f84:	0000009f 	0x9f
     f88:	00000000 	nop
     f8c:	00032000 	sll	a0,v1,0x0
     f90:	00032f00 	sll	a1,v1,0x1c
     f94:	56000100 	bnezl	s0,1398 <_DYNAMIC-0x3feda8>
     f98:	0000032f 	0x32f
     f9c:	0000033c 	0x33c
     fa0:	01f30004 	sllv	zero,s3,t7
     fa4:	00009f56 	0x9f56
     fa8:	00000000 	nop
     fac:	02b40000 	0x2b40000
     fb0:	02c80000 	0x2c80000
     fb4:	00010000 	sll	zero,at,0x0
     fb8:	0002c854 	0x2c854
     fbc:	00032000 	sll	a0,v1,0x0
     fc0:	52000100 	beqzl	s0,13c4 <_DYNAMIC-0x3fed7c>
     fc4:	00000000 	nop
     fc8:	00000000 	nop
     fcc:	000002b4 	teq	zero,zero,0xa
     fd0:	000002e0 	0x2e0
     fd4:	e0550001 	sc	s5,1(v0)
     fd8:	fc000002 	sdc3	$0,2(zero)
     fdc:	04000002 	bltz	zero,fe8 <_DYNAMIC-0x3ff158>
     fe0:	5501f300 	bnel	t0,at,ffffdbe4 <_gp+0xffbe4874>
     fe4:	0002fc9f 	0x2fc9f
     fe8:	00032000 	sll	a0,v1,0x0
     fec:	55000100 	bnezl	t0,13f0 <_DYNAMIC-0x3fed50>
     ff0:	00000000 	nop
     ff4:	00000000 	nop
     ff8:	000002b4 	teq	zero,zero,0xa
     ffc:	000002d0 	0x2d0
    1000:	d0560001 	0xd0560001
    1004:	dc000002 	ldc3	$0,2(zero)
    1008:	03000002 	0x3000002
    100c:	9f7f7600 	0x9f7f7600
    1010:	000002dc 	0x2dc
    1014:	000002e0 	0x2e0
    1018:	01f30006 	srlv	zero,s3,t7
    101c:	9f1c3156 	0x9f1c3156
    1020:	000002e0 	0x2e0
    1024:	000002e8 	0x2e8
    1028:	0075000c 	syscall	0x1d400
    102c:	5601f320 	bnel	s0,at,ffffdcb0 <_gp+0xffbe4940>
    1030:	5501f322 	bnel	t0,at,ffffdcbc <_gp+0xffbe494c>
    1034:	02e89f22 	0x2e89f22
    1038:	02ec0000 	0x2ec0000
    103c:	000b0000 	sll	zero,t3,0x0
    1040:	755501f3 	jalx	55407cc <_gp+0x512745c>
    1044:	01f31c00 	0x1f31c00
    1048:	ec9f2256 	swc3	$31,8790(a0)
    104c:	f4000002 	sdc1	$f0,2(zero)
    1050:	0c000002 	jal	8 <_DYNAMIC-0x400138>
    1054:	20007500 	addi	zero,zero,29952
    1058:	225601f3 	addi	s6,s2,499
    105c:	225501f3 	addi	s5,s2,499
    1060:	0002fc9f 	0x2fc9f
    1064:	00030400 	sll	zero,v1,0x10
    1068:	76000300 	jalx	8000c00 <_gp+0x7be7890>
    106c:	03049f7f 	0x3049f7f
    1070:	03200000 	0x3200000
    1074:	000b0000 	sll	zero,t3,0x0
    1078:	73200073 	0x73200073
    107c:	01f32200 	0x1f32200
    1080:	009f2256 	0x9f2256
    1084:	00000000 	nop
    1088:	b4000000 	0xb4000000
    108c:	f4000002 	sdc1	$f0,2(zero)
    1090:	01000002 	0x1000002
    1094:	02fc5500 	0x2fc5500
    1098:	03200000 	0x3200000
    109c:	00010000 	sll	zero,at,0x0
    10a0:	00000053 	mtlhx	zero
    10a4:	00000000 	nop
    10a8:	0002b400 	sll	s6,v0,0x10
    10ac:	0002c800 	sll	t9,v0,0x0
    10b0:	54000100 	bnezl	zero,14b4 <_DYNAMIC-0x3fec8c>
    10b4:	000002c8 	0x2c8
    10b8:	000002e0 	0x2e0
    10bc:	e0520001 	sc	s2,1(v0)
    10c0:	f4000002 	sdc1	$f0,2(zero)
    10c4:	01000002 	0x1000002
    10c8:	02fc5300 	0x2fc5300
    10cc:	03200000 	0x3200000
    10d0:	00010000 	sll	zero,at,0x0
    10d4:	00000057 	0x57
    10d8:	00000000 	nop
    10dc:	00028c00 	sll	s1,v0,0x10
    10e0:	0002a000 	sll	s4,v0,0x0
    10e4:	54000100 	bnezl	zero,14e8 <_DYNAMIC-0x3fec58>
    10e8:	000002a0 	0x2a0
    10ec:	000002b4 	teq	zero,zero,0xa
    10f0:	00520001 	0x520001
    10f4:	00000000 	nop
    10f8:	8c000000 	lw	zero,0(zero)
    10fc:	9c000002 	0x9c000002
    1100:	01000002 	0x1000002
    1104:	029c5600 	0x29c5600
    1108:	02a00000 	0x2a00000
    110c:	00030000 	sll	zero,v1,0x0
    1110:	a09f0173 	sb	ra,371(a0)
    1114:	b4000002 	0xb4000002
    1118:	04000002 	bltz	zero,1124 <_DYNAMIC-0x3ff01c>
    111c:	5601f300 	bnel	s0,at,ffffdd20 <_gp+0xffbe49b0>
    1120:	0000009f 	0x9f
    1124:	00000000 	nop
    1128:	00028c00 	sll	s1,v0,0x10
    112c:	0002a000 	sll	s4,v0,0x0
    1130:	54000100 	bnezl	zero,1534 <_DYNAMIC-0x3fec0c>
    1134:	000002a0 	0x2a0
    1138:	000002ac 	0x2ac
    113c:	00530001 	0x530001
    1140:	00000000 	nop
    1144:	8c000000 	lw	zero,0(zero)
    1148:	90000002 	lbu	zero,2(zero)
    114c:	03000002 	0x3000002
    1150:	9f7f7600 	0x9f7f7600
    1154:	00000290 	0x290
    1158:	000002a0 	0x2a0
    115c:	a0530001 	sb	s3,1(v0)
    1160:	ac000002 	sw	zero,2(zero)
    1164:	0b000002 	j	c000008 <_gp+0xbbe6c98>
    1168:	20007300 	addi	zero,zero,29440
    116c:	f3220072 	0xf3220072
    1170:	9f225601 	0x9f225601
	...
    117c:	00000250 	0x250
    1180:	00000264 	0x264
    1184:	64540001 	0x64540001
    1188:	8c000002 	lw	zero,2(zero)
    118c:	01000002 	0x1000002
    1190:	00005200 	sll	t2,zero,0x8
    1194:	00000000 	nop
    1198:	02040000 	0x2040000
    119c:	021c0000 	0x21c0000
    11a0:	00010000 	sll	zero,at,0x0
    11a4:	00021c54 	0x21c54
    11a8:	00025000 	sll	t2,v0,0x0
    11ac:	54000100 	bnezl	zero,15b0 <_DYNAMIC-0x3feb90>
    11b0:	00000000 	nop
    11b4:	00000000 	nop
    11b8:	000001a4 	0x1a4
    11bc:	000001c8 	0x1c8
    11c0:	c8540001 	lwc2	$20,1(v0)
    11c4:	04000001 	bltz	zero,11cc <_DYNAMIC-0x3fef74>
    11c8:	01000002 	0x1000002
    11cc:	00005400 	sll	t2,zero,0x10
    11d0:	00000000 	nop
    11d4:	01a40000 	0x1a40000
    11d8:	01c80000 	0x1c80000
    11dc:	00010000 	sll	zero,at,0x0
    11e0:	0001c855 	0x1c855
    11e4:	00020400 	sll	zero,v0,0x10
    11e8:	55000100 	bnezl	t0,15ec <_DYNAMIC-0x3feb54>
    11ec:	00000000 	nop
    11f0:	00000000 	nop
    11f4:	000001a4 	0x1a4
    11f8:	000001c4 	0x1c4
    11fc:	c4560001 	lwc1	$f22,1(v0)
    1200:	c8000001 	lwc2	$0,1(zero)
    1204:	0b000001 	j	c000004 <_gp+0xbbe6c94>
    1208:	20007400 	addi	zero,zero,29696
    120c:	225601f3 	addi	s6,s2,499
    1210:	9f220074 	0x9f220074
    1214:	000001c8 	0x1c8
    1218:	000001e4 	0x1e4
    121c:	0074000b 	movn	zero,v1,s4
    1220:	22007420 	addi	zero,s0,29728
    1224:	225601f3 	addi	s6,s2,499
    1228:	0001f49f 	0x1f49f
    122c:	0001fc00 	sll	ra,at,0x10
    1230:	56000100 	bnezl	s0,1634 <_DYNAMIC-0x3feb0c>
    1234:	000001fc 	0x1fc
    1238:	00000204 	0x204
    123c:	0074000b 	movn	zero,v1,s4
    1240:	22007420 	addi	zero,s0,29728
    1244:	225601f3 	addi	s6,s2,499
    1248:	0000009f 	0x9f
    124c:	00000000 	nop
    1250:	00016800 	sll	t5,at,0x0
    1254:	00018000 	sll	s0,at,0x0
    1258:	54000100 	bnezl	zero,165c <_DYNAMIC-0x3feae4>
    125c:	00000180 	sll	zero,zero,0x6
    1260:	000001a4 	0x1a4
    1264:	00540001 	movf	zero,v0,$fcc5
    1268:	00000000 	nop
    126c:	68000000 	0x68000000
    1270:	80000001 	lb	zero,1(zero)
    1274:	01000001 	movf	zero,t0,$fcc0
    1278:	01805500 	0x1805500
    127c:	01a40000 	0x1a40000
    1280:	00010000 	sll	zero,at,0x0
    1284:	00000055 	0x55
    1288:	00000000 	nop
    128c:	00011400 	sll	v0,at,0x10
    1290:	00013400 	sll	a2,at,0x10
    1294:	54000100 	bnezl	zero,1698 <_DYNAMIC-0x3feaa8>
    1298:	00000134 	teq	zero,zero,0x4
    129c:	00000158 	0x158
    12a0:	60520001 	0x60520001
    12a4:	68000001 	0x68000001
    12a8:	01000001 	movf	zero,t0,$fcc0
    12ac:	00005400 	sll	t2,zero,0x10
    12b0:	00000000 	nop
    12b4:	01140000 	0x1140000
    12b8:	013c0000 	0x13c0000
    12bc:	00010000 	sll	zero,at,0x0
    12c0:	00013c55 	0x13c55
    12c4:	00016800 	sll	t5,at,0x0
    12c8:	55000100 	bnezl	t0,16cc <_DYNAMIC-0x3fea74>
    12cc:	00000000 	nop
    12d0:	00000000 	nop
    12d4:	00000114 	0x114
    12d8:	00000120 	0x120
    12dc:	20560001 	addi	s6,v0,1
    12e0:	68000001 	0x68000001
    12e4:	01000001 	movf	zero,t0,$fcc0
    12e8:	00005600 	sll	t2,zero,0x18
    12ec:	00000000 	nop
    12f0:	00e00000 	0xe00000
    12f4:	00f00000 	0xf00000
    12f8:	00010000 	sll	zero,at,0x0
    12fc:	0000f054 	0xf054
    1300:	00010c00 	sll	at,at,0x10
    1304:	53000100 	beqzl	t8,1708 <_DYNAMIC-0x3fea38>
    1308:	00000000 	nop
    130c:	00000000 	nop
    1310:	000000e0 	0xe0
    1314:	00000104 	0x104
    1318:	04550001 	0x4550001
    131c:	14000001 	bnez	zero,1324 <_DYNAMIC-0x3fee1c>
    1320:	01000001 	movf	zero,t0,$fcc0
    1324:	00005500 	sll	t2,zero,0x14
    1328:	00000000 	nop
    132c:	00e00000 	0xe00000
    1330:	00ec0000 	0xec0000
    1334:	00010000 	sll	zero,at,0x0
    1338:	0000ec56 	0xec56
    133c:	00011400 	sll	v0,at,0x10
    1340:	f3000400 	0xf3000400
    1344:	009f5601 	0x9f5601
    1348:	00000000 	nop
    134c:	e0000000 	sc	zero,0(zero)
    1350:	f0000000 	0xf0000000
    1354:	02000000 	0x2000000
    1358:	f09f3000 	0xf09f3000
    135c:	f4000000 	sdc1	$f0,0(zero)
    1360:	06000000 	bltz	s0,1364 <_DYNAMIC-0x3feddc>
    1364:	72007300 	0x72007300
    1368:	f49f1c00 	sdc1	$f31,7168(a0)
    136c:	04000000 	bltz	zero,1370 <_DYNAMIC-0x3fedd0>
    1370:	07000001 	bltz	t8,1378 <_DYNAMIC-0x3fedc8>
    1374:	20007200 	addi	zero,zero,29184
    1378:	9f220073 	0x9f220073
    137c:	00000104 	0x104
    1380:	0000010c 	syscall	0x4
    1384:	00730006 	srlv	zero,s3,v1
    1388:	9f1c0072 	0x9f1c0072
	...
    1394:	000000e0 	0xe0
    1398:	000000f0 	tge	zero,zero,0x3
    139c:	f0540001 	0xf0540001
    13a0:	14000000 	bnez	zero,13a4 <_DYNAMIC-0x3fed9c>
    13a4:	01000001 	movf	zero,t0,$fcc0
    13a8:	00005200 	sll	t2,zero,0x8
    13ac:	00000000 	nop
    13b0:	00a00000 	0xa00000
    13b4:	00bb0000 	0xbb0000
    13b8:	00010000 	sll	zero,at,0x0
    13bc:	0000bb54 	0xbb54
    13c0:	0000d800 	sll	k1,zero,0x0
    13c4:	60000100 	0x60000100
    13c8:	000000d8 	0xd8
    13cc:	000000e0 	0xe0
    13d0:	00520001 	0x520001
    13d4:	00000000 	nop
    13d8:	a0000000 	sb	zero,0(zero)
    13dc:	bb000000 	swr	zero,0(t8)
    13e0:	01000000 	0x1000000
    13e4:	00bb5500 	0xbb5500
    13e8:	00d40000 	0xd40000
    13ec:	00010000 	sll	zero,at,0x0
    13f0:	0000d461 	0xd461
    13f4:	0000e000 	sll	gp,zero,0x0
    13f8:	f3000400 	0xf3000400
    13fc:	009f5501 	0x9f5501
    1400:	00000000 	nop
    1404:	bc000000 	cache	0x0,0(zero)
    1408:	c7000000 	lwc1	$f0,0(t8)
    140c:	01000000 	0x1000000
    1410:	00005200 	sll	t2,zero,0x8
    1414:	00000000 	nop
    1418:	007c0000 	0x7c0000
    141c:	00840000 	0x840000
    1420:	00010000 	sll	zero,at,0x0
    1424:	00008454 	0x8454
    1428:	0000a000 	sll	s4,zero,0x0
    142c:	53000100 	beqzl	t8,1830 <_DYNAMIC-0x3fe910>
    1430:	00000000 	nop
    1434:	00000000 	nop
    1438:	0000007c 	0x7c
    143c:	0000008c 	syscall	0x2
    1440:	8c550001 	lw	s5,1(v0)
    1444:	a0000000 	sb	zero,0(zero)
    1448:	01000000 	0x1000000
    144c:	00005500 	sll	t2,zero,0x14
    1450:	00000000 	nop
    1454:	00800000 	0x800000
    1458:	00840000 	0x840000
    145c:	00010000 	sll	zero,at,0x0
    1460:	00008454 	0x8454
    1464:	0000a000 	sll	s4,zero,0x0
    1468:	52000100 	beqzl	s0,186c <_DYNAMIC-0x3fe8d4>
    146c:	00000000 	nop
    1470:	00000000 	nop
    1474:	00000030 	tge	zero,zero
    1478:	0000004c 	syscall	0x1
    147c:	4c540001 	ldxc1	$f0,s4(v0)
    1480:	7c000000 	ext	zero,zero,0x0,0x1
    1484:	01000000 	0x1000000
    1488:	00005400 	sll	t2,zero,0x10
    148c:	00000000 	nop
    1490:	00300000 	0x300000
    1494:	00440000 	0x440000
    1498:	00010000 	sll	zero,at,0x0
    149c:	00004455 	0x4455
    14a0:	00004800 	sll	t1,zero,0x0
    14a4:	f3000400 	0xf3000400
    14a8:	489f5501 	0x489f5501
    14ac:	4c000000 	lwxc1	$f0,zero(zero)
    14b0:	09000000 	j	4000000 <_gp+0x3be6c90>
    14b4:	5501f300 	bnel	t0,at,ffffe0b8 <_gp+0xffbe4d48>
    14b8:	231c0072 	addi	gp,t8,114
    14bc:	004c9f01 	0x4c9f01
    14c0:	00680000 	0x680000
    14c4:	00070000 	sll	zero,a3,0x0
    14c8:	725501f3 	0x725501f3
    14cc:	689f1c00 	0x689f1c00
    14d0:	74000000 	jalx	0 <_DYNAMIC-0x400140>
    14d4:	01000000 	0x1000000
    14d8:	00005500 	sll	t2,zero,0x14
    14dc:	00000000 	nop
    14e0:	00300000 	0x300000
    14e4:	00480000 	0x480000
    14e8:	00020000 	sll	zero,v0,0x0
    14ec:	00489f30 	tge	v0,t0,0x27c
    14f0:	00680000 	0x680000
    14f4:	00010000 	sll	zero,at,0x0
    14f8:	00006852 	mflhxu	t5
    14fc:	00007400 	sll	t6,zero,0x10
    1500:	30000200 	andi	zero,zero,0x200
    1504:	0000009f 	0x9f
	...
    1510:	00001400 	sll	v0,zero,0x10
    1514:	54000100 	bnezl	zero,1918 <_DYNAMIC-0x3fe828>
    1518:	00000014 	0x14
    151c:	00000030 	tge	zero,zero
    1520:	00540001 	movf	zero,v0,$fcc5
	...
    152c:	10000000 	b	1530 <_DYNAMIC-0x3fec10>
    1530:	02000000 	0x2000000
    1534:	109f3000 	beq	a0,ra,d538 <_DYNAMIC-0x3f2c08>
    1538:	28000000 	slti	zero,zero,0
    153c:	01000000 	0x1000000
    1540:	00285200 	0x285200
    1544:	00300000 	0x300000
    1548:	00020000 	sll	zero,v0,0x0
    154c:	00009f30 	tge	zero,zero,0x27c
    1550:	00000000 	nop
	...

Disassembly of section .gnu.attributes:

00000000 <.gnu.attributes>:
   0:	00000f41 	0xf41
   4:	756e6700 	jalx	5b99c00 <_gp+0x5780890>
   8:	00070100 	sll	zero,a3,0x4
   c:	03040000 	0x3040000
