
dyntest.elf:     file format elf32-tradlittlemips


Disassembly of section .text:

004003a8 <main>:
  4003a8:	3c1c0002 	lui	gp,0x2
  4003ac:	279c8fc8 	addiu	gp,gp,-28728
  4003b0:	0399e021 	addu	gp,gp,t9
  4003b4:	27bdffd8 	addiu	sp,sp,-40
  4003b8:	afbf0024 	sw	ra,36(sp)
  4003bc:	afb20020 	sw	s2,32(sp)
  4003c0:	afb1001c 	sw	s1,28(sp)
  4003c4:	afb00018 	sw	s0,24(sp)
  4003c8:	afbc0010 	sw	gp,16(sp)
  4003cc:	8f848018 	lw	a0,-32744(gp)
  4003d0:	248412b0 	addiu	a0,a0,4784
  4003d4:	8f99801c 	lw	t9,-32740(gp)
  4003d8:	0411012b 	bal	400888 <syscall_printf>
  4003dc:	00000000 	nop
  4003e0:	8fbc0010 	lw	gp,16(sp)
  4003e4:	24050004 	li	a1,4
  4003e8:	24040003 	li	a0,3
  4003ec:	8f998028 	lw	t9,-32728(gp)
  4003f0:	0320f809 	jalr	t9
  4003f4:	00000000 	nop
  4003f8:	8fbc0010 	lw	gp,16(sp)
  4003fc:	00408025 	move	s0,v0
  400400:	00402825 	move	a1,v0
  400404:	8f848018 	lw	a0,-32744(gp)
  400408:	248412d0 	addiu	a0,a0,4816
  40040c:	8f99801c 	lw	t9,-32740(gp)
  400410:	0411011d 	bal	400888 <syscall_printf>
  400414:	00000000 	nop
  400418:	8fbc0010 	lw	gp,16(sp)
  40041c:	24050006 	li	a1,6
  400420:	24040005 	li	a0,5
  400424:	8f998024 	lw	t9,-32732(gp)
  400428:	0320f809 	jalr	t9
  40042c:	00000000 	nop
  400430:	8fbc0010 	lw	gp,16(sp)
  400434:	00408825 	move	s1,v0
  400438:	00402825 	move	a1,v0
  40043c:	8f848018 	lw	a0,-32744(gp)
  400440:	248412e0 	addiu	a0,a0,4832
  400444:	8f99801c 	lw	t9,-32740(gp)
  400448:	0411010f 	bal	400888 <syscall_printf>
  40044c:	00000000 	nop
  400450:	8fbc0010 	lw	gp,16(sp)
  400454:	02202825 	move	a1,s1
  400458:	02002025 	move	a0,s0
  40045c:	8f998028 	lw	t9,-32728(gp)
  400460:	0320f809 	jalr	t9
  400464:	00000000 	nop
  400468:	8fbc0010 	lw	gp,16(sp)
  40046c:	00409025 	move	s2,v0
  400470:	00403825 	move	a3,v0
  400474:	02203025 	move	a2,s1
  400478:	02002825 	move	a1,s0
  40047c:	8f848018 	lw	a0,-32744(gp)
  400480:	248412f0 	addiu	a0,a0,4848
  400484:	8f99801c 	lw	t9,-32740(gp)
  400488:	041100ff 	bal	400888 <syscall_printf>
  40048c:	00000000 	nop
  400490:	8fbc0010 	lw	gp,16(sp)
  400494:	8f998030 	lw	t9,-32720(gp)
  400498:	0320f809 	jalr	t9
  40049c:	00000000 	nop
  4004a0:	8fbc0010 	lw	gp,16(sp)
  4004a4:	00402825 	move	a1,v0
  4004a8:	8f848018 	lw	a0,-32744(gp)
  4004ac:	24841304 	addiu	a0,a0,4868
  4004b0:	8f99801c 	lw	t9,-32740(gp)
  4004b4:	041100f4 	bal	400888 <syscall_printf>
  4004b8:	00000000 	nop
  4004bc:	8fbc0010 	lw	gp,16(sp)
  4004c0:	8f90802c 	lw	s0,-32724(gp)
  4004c4:	8e050000 	lw	a1,0(s0)
  4004c8:	8f848018 	lw	a0,-32744(gp)
  4004cc:	24841318 	addiu	a0,a0,4888
  4004d0:	8f99801c 	lw	t9,-32740(gp)
  4004d4:	041100ec 	bal	400888 <syscall_printf>
  4004d8:	00000000 	nop
  4004dc:	8fbc0010 	lw	gp,16(sp)
  4004e0:	240200c8 	li	v0,200
  4004e4:	ae020000 	sw	v0,0(s0)
  4004e8:	240500c8 	li	a1,200
  4004ec:	8f848018 	lw	a0,-32744(gp)
  4004f0:	24841334 	addiu	a0,a0,4916
  4004f4:	8f99801c 	lw	t9,-32740(gp)
  4004f8:	041100e3 	bal	400888 <syscall_printf>
  4004fc:	00000000 	nop
  400500:	8fbc0010 	lw	gp,16(sp)
  400504:	2405002a 	li	a1,42
  400508:	8f848018 	lw	a0,-32744(gp)
  40050c:	2484134c 	addiu	a0,a0,4940
  400510:	8f99801c 	lw	t9,-32740(gp)
  400514:	041100dc 	bal	400888 <syscall_printf>
  400518:	00000000 	nop
  40051c:	8fbc0010 	lw	gp,16(sp)
  400520:	8f848018 	lw	a0,-32744(gp)
  400524:	2484135c 	addiu	a0,a0,4956
  400528:	8f99801c 	lw	t9,-32740(gp)
  40052c:	041100d6 	bal	400888 <syscall_printf>
  400530:	00000000 	nop
  400534:	8fbc0010 	lw	gp,16(sp)
  400538:	02401025 	move	v0,s2
  40053c:	8fbf0024 	lw	ra,36(sp)
  400540:	8fb20020 	lw	s2,32(sp)
  400544:	8fb1001c 	lw	s1,28(sp)
  400548:	8fb00018 	lw	s0,24(sp)
  40054c:	03e00008 	jr	ra
  400550:	27bd0028 	addiu	sp,sp,40

00400554 <syscall_putchar>:
  400554:	27bdffe0 	addiu	sp,sp,-32
  400558:	afbf001c 	sw	ra,28(sp)
  40055c:	afa00014 	sw	zero,20(sp)
  400560:	afa00010 	sw	zero,16(sp)
  400564:	00003825 	move	a3,zero
  400568:	00003025 	move	a2,zero
  40056c:	00802825 	move	a1,a0
  400570:	0c1002ff 	jal	400bfc <msyscall>
  400574:	24042537 	li	a0,9527
  400578:	8fbf001c 	lw	ra,28(sp)
  40057c:	03e00008 	jr	ra
  400580:	27bd0020 	addiu	sp,sp,32

00400584 <syscall_getenvid>:
  400584:	27bdffe0 	addiu	sp,sp,-32
  400588:	afbf001c 	sw	ra,28(sp)
  40058c:	afa00014 	sw	zero,20(sp)
  400590:	afa00010 	sw	zero,16(sp)
  400594:	00003825 	move	a3,zero
  400598:	00003025 	move	a2,zero
  40059c:	00002825 	move	a1,zero
  4005a0:	0c1002ff 	jal	400bfc <msyscall>
  4005a4:	24042538 	li	a0,9528
  4005a8:	8fbf001c 	lw	ra,28(sp)
  4005ac:	03e00008 	jr	ra
  4005b0:	27bd0020 	addiu	sp,sp,32

004005b4 <syscall_get_shm>:
  4005b4:	27bdffe0 	addiu	sp,sp,-32
  4005b8:	afbf001c 	sw	ra,28(sp)
  4005bc:	afa00014 	sw	zero,20(sp)
  4005c0:	afa00010 	sw	zero,16(sp)
  4005c4:	00003825 	move	a3,zero
  4005c8:	00a03025 	move	a2,a1
  4005cc:	00802825 	move	a1,a0
  4005d0:	0c1002ff 	jal	400bfc <msyscall>
  4005d4:	24042539 	li	a0,9529
  4005d8:	8fbf001c 	lw	ra,28(sp)
  4005dc:	03e00008 	jr	ra
  4005e0:	27bd0020 	addiu	sp,sp,32

004005e4 <syscall_env_create>:
  4005e4:	27bdffe0 	addiu	sp,sp,-32
  4005e8:	afbf001c 	sw	ra,28(sp)
  4005ec:	afa00014 	sw	zero,20(sp)
  4005f0:	afa00010 	sw	zero,16(sp)
  4005f4:	00c03825 	move	a3,a2
  4005f8:	00a03025 	move	a2,a1
  4005fc:	00802825 	move	a1,a0
  400600:	0c1002ff 	jal	400bfc <msyscall>
  400604:	2404253a 	li	a0,9530
  400608:	8fbf001c 	lw	ra,28(sp)
  40060c:	03e00008 	jr	ra
  400610:	27bd0020 	addiu	sp,sp,32

00400614 <syscall_set_pgfault_handler>:
  400614:	27bdffe0 	addiu	sp,sp,-32
  400618:	afbf001c 	sw	ra,28(sp)
  40061c:	afa00014 	sw	zero,20(sp)
  400620:	afa00010 	sw	zero,16(sp)
  400624:	00c03825 	move	a3,a2
  400628:	00a03025 	move	a2,a1
  40062c:	00802825 	move	a1,a0
  400630:	0c1002ff 	jal	400bfc <msyscall>
  400634:	2404253b 	li	a0,9531
  400638:	8fbf001c 	lw	ra,28(sp)
  40063c:	03e00008 	jr	ra
  400640:	27bd0020 	addiu	sp,sp,32

00400644 <syscall_mem_alloc>:
  400644:	27bdffe0 	addiu	sp,sp,-32
  400648:	afbf001c 	sw	ra,28(sp)
  40064c:	afa00014 	sw	zero,20(sp)
  400650:	afa00010 	sw	zero,16(sp)
  400654:	00c03825 	move	a3,a2
  400658:	00a03025 	move	a2,a1
  40065c:	00802825 	move	a1,a0
  400660:	0c1002ff 	jal	400bfc <msyscall>
  400664:	2404253c 	li	a0,9532
  400668:	8fbf001c 	lw	ra,28(sp)
  40066c:	03e00008 	jr	ra
  400670:	27bd0020 	addiu	sp,sp,32

00400674 <syscall_mem_map>:
  400674:	27bdffe0 	addiu	sp,sp,-32
  400678:	afbf001c 	sw	ra,28(sp)
  40067c:	8fa20030 	lw	v0,48(sp)
  400680:	afa20014 	sw	v0,20(sp)
  400684:	afa70010 	sw	a3,16(sp)
  400688:	00c03825 	move	a3,a2
  40068c:	00a03025 	move	a2,a1
  400690:	00802825 	move	a1,a0
  400694:	0c1002ff 	jal	400bfc <msyscall>
  400698:	2404253d 	li	a0,9533
  40069c:	8fbf001c 	lw	ra,28(sp)
  4006a0:	03e00008 	jr	ra
  4006a4:	27bd0020 	addiu	sp,sp,32

004006a8 <syscall_mem_unmap>:
  4006a8:	27bdffe0 	addiu	sp,sp,-32
  4006ac:	afbf001c 	sw	ra,28(sp)
  4006b0:	afa00014 	sw	zero,20(sp)
  4006b4:	afa00010 	sw	zero,16(sp)
  4006b8:	00003825 	move	a3,zero
  4006bc:	00a03025 	move	a2,a1
  4006c0:	00802825 	move	a1,a0
  4006c4:	0c1002ff 	jal	400bfc <msyscall>
  4006c8:	2404253e 	li	a0,9534
  4006cc:	8fbf001c 	lw	ra,28(sp)
  4006d0:	03e00008 	jr	ra
  4006d4:	27bd0020 	addiu	sp,sp,32

004006d8 <syscall_pthread_create>:
  4006d8:	27bdffe0 	addiu	sp,sp,-32
  4006dc:	afbf001c 	sw	ra,28(sp)
  4006e0:	afa00014 	sw	zero,20(sp)
  4006e4:	afa00010 	sw	zero,16(sp)
  4006e8:	00003825 	move	a3,zero
  4006ec:	00a03025 	move	a2,a1
  4006f0:	00802825 	move	a1,a0
  4006f4:	0c1002ff 	jal	400bfc <msyscall>
  4006f8:	2404253f 	li	a0,9535
  4006fc:	8fbf001c 	lw	ra,28(sp)
  400700:	03e00008 	jr	ra
  400704:	27bd0020 	addiu	sp,sp,32

00400708 <syscall_set_env_status>:
  400708:	27bdffe0 	addiu	sp,sp,-32
  40070c:	afbf001c 	sw	ra,28(sp)
  400710:	afa00014 	sw	zero,20(sp)
  400714:	afa00010 	sw	zero,16(sp)
  400718:	00003825 	move	a3,zero
  40071c:	00a03025 	move	a2,a1
  400720:	00802825 	move	a1,a0
  400724:	0c1002ff 	jal	400bfc <msyscall>
  400728:	24042540 	li	a0,9536
  40072c:	8fbf001c 	lw	ra,28(sp)
  400730:	03e00008 	jr	ra
  400734:	27bd0020 	addiu	sp,sp,32

00400738 <syscall_set_trapframe>:
  400738:	27bdffe0 	addiu	sp,sp,-32
  40073c:	afbf001c 	sw	ra,28(sp)
  400740:	afa00014 	sw	zero,20(sp)
  400744:	afa00010 	sw	zero,16(sp)
  400748:	00003825 	move	a3,zero
  40074c:	00a03025 	move	a2,a1
  400750:	00802825 	move	a1,a0
  400754:	0c1002ff 	jal	400bfc <msyscall>
  400758:	24042541 	li	a0,9537
  40075c:	8fbf001c 	lw	ra,28(sp)
  400760:	03e00008 	jr	ra
  400764:	27bd0020 	addiu	sp,sp,32

00400768 <syscall_panic>:
  400768:	27bdffe0 	addiu	sp,sp,-32
  40076c:	afbf001c 	sw	ra,28(sp)
  400770:	afa00014 	sw	zero,20(sp)
  400774:	afa00010 	sw	zero,16(sp)
  400778:	00003825 	move	a3,zero
  40077c:	00003025 	move	a2,zero
  400780:	00802825 	move	a1,a0
  400784:	0c1002ff 	jal	400bfc <msyscall>
  400788:	24042542 	li	a0,9538
  40078c:	8fbf001c 	lw	ra,28(sp)
  400790:	03e00008 	jr	ra
  400794:	27bd0020 	addiu	sp,sp,32

00400798 <syscall_ipc_can_send>:
  400798:	27bdffe0 	addiu	sp,sp,-32
  40079c:	afbf001c 	sw	ra,28(sp)
  4007a0:	afa00014 	sw	zero,20(sp)
  4007a4:	afa70010 	sw	a3,16(sp)
  4007a8:	00c03825 	move	a3,a2
  4007ac:	00a03025 	move	a2,a1
  4007b0:	00802825 	move	a1,a0
  4007b4:	0c1002ff 	jal	400bfc <msyscall>
  4007b8:	24042543 	li	a0,9539
  4007bc:	8fbf001c 	lw	ra,28(sp)
  4007c0:	03e00008 	jr	ra
  4007c4:	27bd0020 	addiu	sp,sp,32

004007c8 <syscall_ipc_recv>:
  4007c8:	27bdffe0 	addiu	sp,sp,-32
  4007cc:	afbf001c 	sw	ra,28(sp)
  4007d0:	afa00014 	sw	zero,20(sp)
  4007d4:	afa00010 	sw	zero,16(sp)
  4007d8:	00003825 	move	a3,zero
  4007dc:	00003025 	move	a2,zero
  4007e0:	00802825 	move	a1,a0
  4007e4:	0c1002ff 	jal	400bfc <msyscall>
  4007e8:	24042544 	li	a0,9540
  4007ec:	8fbf001c 	lw	ra,28(sp)
  4007f0:	03e00008 	jr	ra
  4007f4:	27bd0020 	addiu	sp,sp,32

004007f8 <syscall_free_myself>:
  4007f8:	27bdffe0 	addiu	sp,sp,-32
  4007fc:	afbf001c 	sw	ra,28(sp)
  400800:	afa00014 	sw	zero,20(sp)
  400804:	afa00010 	sw	zero,16(sp)
  400808:	00003825 	move	a3,zero
  40080c:	00003025 	move	a2,zero
  400810:	00002825 	move	a1,zero
  400814:	0c1002ff 	jal	400bfc <msyscall>
  400818:	24042545 	li	a0,9541
  40081c:	8fbf001c 	lw	ra,28(sp)
  400820:	03e00008 	jr	ra
  400824:	27bd0020 	addiu	sp,sp,32

00400828 <syscall_write_dev>:
  400828:	27bdffe0 	addiu	sp,sp,-32
  40082c:	afbf001c 	sw	ra,28(sp)
  400830:	afa00014 	sw	zero,20(sp)
  400834:	afa00010 	sw	zero,16(sp)
  400838:	00c03825 	move	a3,a2
  40083c:	00a03025 	move	a2,a1
  400840:	00802825 	move	a1,a0
  400844:	0c1002ff 	jal	400bfc <msyscall>
  400848:	24042546 	li	a0,9542
  40084c:	8fbf001c 	lw	ra,28(sp)
  400850:	03e00008 	jr	ra
  400854:	27bd0020 	addiu	sp,sp,32

00400858 <syscall_read_dev>:
  400858:	27bdffe0 	addiu	sp,sp,-32
  40085c:	afbf001c 	sw	ra,28(sp)
  400860:	afa00014 	sw	zero,20(sp)
  400864:	afa00010 	sw	zero,16(sp)
  400868:	00c03825 	move	a3,a2
  40086c:	00a03025 	move	a2,a1
  400870:	00802825 	move	a1,a0
  400874:	0c1002ff 	jal	400bfc <msyscall>
  400878:	24042547 	li	a0,9543
  40087c:	8fbf001c 	lw	ra,28(sp)
  400880:	03e00008 	jr	ra
  400884:	27bd0020 	addiu	sp,sp,32

00400888 <syscall_printf>:
  400888:	27bdffd8 	addiu	sp,sp,-40
  40088c:	afbf0024 	sw	ra,36(sp)
  400890:	afa5002c 	sw	a1,44(sp)
  400894:	afa60030 	sw	a2,48(sp)
  400898:	afa70034 	sw	a3,52(sp)
  40089c:	27a2002c 	addiu	v0,sp,44
  4008a0:	afa20018 	sw	v0,24(sp)
  4008a4:	afa00014 	sw	zero,20(sp)
  4008a8:	afa00010 	sw	zero,16(sp)
  4008ac:	00003825 	move	a3,zero
  4008b0:	27a60018 	addiu	a2,sp,24
  4008b4:	00802825 	move	a1,a0
  4008b8:	0c1002ff 	jal	400bfc <msyscall>
  4008bc:	24042548 	li	a0,9544
  4008c0:	8fbf0024 	lw	ra,36(sp)
  4008c4:	03e00008 	jr	ra
  4008c8:	27bd0028 	addiu	sp,sp,40

004008cc <syscall_set_leds>:
  4008cc:	27bdffe0 	addiu	sp,sp,-32
  4008d0:	afbf001c 	sw	ra,28(sp)
  4008d4:	afa00014 	sw	zero,20(sp)
  4008d8:	afa00010 	sw	zero,16(sp)
  4008dc:	00003825 	move	a3,zero
  4008e0:	00003025 	move	a2,zero
  4008e4:	00802825 	move	a1,a0
  4008e8:	0c1002ff 	jal	400bfc <msyscall>
  4008ec:	24042549 	li	a0,9545
  4008f0:	8fbf001c 	lw	ra,28(sp)
  4008f4:	03e00008 	jr	ra
  4008f8:	27bd0020 	addiu	sp,sp,32

004008fc <syscall_get_switchs>:
  4008fc:	27bdffe0 	addiu	sp,sp,-32
  400900:	afbf001c 	sw	ra,28(sp)
  400904:	afa00014 	sw	zero,20(sp)
  400908:	afa00010 	sw	zero,16(sp)
  40090c:	00003825 	move	a3,zero
  400910:	00003025 	move	a2,zero
  400914:	00002825 	move	a1,zero
  400918:	0c1002ff 	jal	400bfc <msyscall>
  40091c:	2404254a 	li	a0,9546
  400920:	8fbf001c 	lw	ra,28(sp)
  400924:	03e00008 	jr	ra
  400928:	27bd0020 	addiu	sp,sp,32

0040092c <syscall_readline>:
  40092c:	27bdffe0 	addiu	sp,sp,-32
  400930:	afbf001c 	sw	ra,28(sp)
  400934:	afa00014 	sw	zero,20(sp)
  400938:	afa00010 	sw	zero,16(sp)
  40093c:	00c03825 	move	a3,a2
  400940:	00a03025 	move	a2,a1
  400944:	00802825 	move	a1,a0
  400948:	0c1002ff 	jal	400bfc <msyscall>
  40094c:	2404254b 	li	a0,9547
  400950:	8fbf001c 	lw	ra,28(sp)
  400954:	03e00008 	jr	ra
  400958:	27bd0020 	addiu	sp,sp,32

0040095c <syscall_env_create_1>:
  40095c:	27bdffe0 	addiu	sp,sp,-32
  400960:	afbf001c 	sw	ra,28(sp)
  400964:	afa00014 	sw	zero,20(sp)
  400968:	afa00010 	sw	zero,16(sp)
  40096c:	00003825 	move	a3,zero
  400970:	00003025 	move	a2,zero
  400974:	00802825 	move	a1,a0
  400978:	0c1002ff 	jal	400bfc <msyscall>
  40097c:	2404254c 	li	a0,9548
  400980:	8fbf001c 	lw	ra,28(sp)
  400984:	03e00008 	jr	ra
  400988:	27bd0020 	addiu	sp,sp,32

0040098c <syscall_mkdir>:
  40098c:	27bdffe0 	addiu	sp,sp,-32
  400990:	afbf001c 	sw	ra,28(sp)
  400994:	afa00014 	sw	zero,20(sp)
  400998:	afa00010 	sw	zero,16(sp)
  40099c:	00003825 	move	a3,zero
  4009a0:	00003025 	move	a2,zero
  4009a4:	00802825 	move	a1,a0
  4009a8:	0c1002ff 	jal	400bfc <msyscall>
  4009ac:	2404254d 	li	a0,9549
  4009b0:	8fbf001c 	lw	ra,28(sp)
  4009b4:	03e00008 	jr	ra
  4009b8:	27bd0020 	addiu	sp,sp,32

004009bc <syscall_cd>:
  4009bc:	27bdffe0 	addiu	sp,sp,-32
  4009c0:	afbf001c 	sw	ra,28(sp)
  4009c4:	afa00014 	sw	zero,20(sp)
  4009c8:	afa00010 	sw	zero,16(sp)
  4009cc:	00003825 	move	a3,zero
  4009d0:	00003025 	move	a2,zero
  4009d4:	00802825 	move	a1,a0
  4009d8:	0c1002ff 	jal	400bfc <msyscall>
  4009dc:	2404254e 	li	a0,9550
  4009e0:	8fbf001c 	lw	ra,28(sp)
  4009e4:	03e00008 	jr	ra
  4009e8:	27bd0020 	addiu	sp,sp,32

004009ec <syscall_fcraete>:
  4009ec:	27bdffe0 	addiu	sp,sp,-32
  4009f0:	afbf001c 	sw	ra,28(sp)
  4009f4:	afa00014 	sw	zero,20(sp)
  4009f8:	afa00010 	sw	zero,16(sp)
  4009fc:	00003825 	move	a3,zero
  400a00:	00003025 	move	a2,zero
  400a04:	00802825 	move	a1,a0
  400a08:	0c1002ff 	jal	400bfc <msyscall>
  400a0c:	2404254f 	li	a0,9551
  400a10:	8fbf001c 	lw	ra,28(sp)
  400a14:	03e00008 	jr	ra
  400a18:	27bd0020 	addiu	sp,sp,32

00400a1c <syscall_fread>:
  400a1c:	27bdffe0 	addiu	sp,sp,-32
  400a20:	afbf001c 	sw	ra,28(sp)
  400a24:	afa00014 	sw	zero,20(sp)
  400a28:	afa00010 	sw	zero,16(sp)
  400a2c:	00003825 	move	a3,zero
  400a30:	00003025 	move	a2,zero
  400a34:	00802825 	move	a1,a0
  400a38:	0c1002ff 	jal	400bfc <msyscall>
  400a3c:	24042550 	li	a0,9552
  400a40:	8fbf001c 	lw	ra,28(sp)
  400a44:	03e00008 	jr	ra
  400a48:	27bd0020 	addiu	sp,sp,32

00400a4c <syscall_fwrite>:
  400a4c:	27bdffe0 	addiu	sp,sp,-32
  400a50:	afbf001c 	sw	ra,28(sp)
  400a54:	afa00014 	sw	zero,20(sp)
  400a58:	afa00010 	sw	zero,16(sp)
  400a5c:	00003825 	move	a3,zero
  400a60:	00a03025 	move	a2,a1
  400a64:	00802825 	move	a1,a0
  400a68:	0c1002ff 	jal	400bfc <msyscall>
  400a6c:	24042551 	li	a0,9553
  400a70:	8fbf001c 	lw	ra,28(sp)
  400a74:	03e00008 	jr	ra
  400a78:	27bd0020 	addiu	sp,sp,32

00400a7c <syscall_ls>:
  400a7c:	27bdffe0 	addiu	sp,sp,-32
  400a80:	afbf001c 	sw	ra,28(sp)
  400a84:	afa00014 	sw	zero,20(sp)
  400a88:	afa00010 	sw	zero,16(sp)
  400a8c:	00003825 	move	a3,zero
  400a90:	00003025 	move	a2,zero
  400a94:	00002825 	move	a1,zero
  400a98:	0c1002ff 	jal	400bfc <msyscall>
  400a9c:	24042552 	li	a0,9554
  400aa0:	8fbf001c 	lw	ra,28(sp)
  400aa4:	03e00008 	jr	ra
  400aa8:	27bd0020 	addiu	sp,sp,32

00400aac <syscall_rm>:
  400aac:	27bdffe0 	addiu	sp,sp,-32
  400ab0:	afbf001c 	sw	ra,28(sp)
  400ab4:	afa00014 	sw	zero,20(sp)
  400ab8:	afa00010 	sw	zero,16(sp)
  400abc:	00003825 	move	a3,zero
  400ac0:	00003025 	move	a2,zero
  400ac4:	00802825 	move	a1,a0
  400ac8:	0c1002ff 	jal	400bfc <msyscall>
  400acc:	24042553 	li	a0,9555
  400ad0:	8fbf001c 	lw	ra,28(sp)
  400ad4:	03e00008 	jr	ra
  400ad8:	27bd0020 	addiu	sp,sp,32

00400adc <syscall_rt_write_byte>:
  400adc:	27bdffe0 	addiu	sp,sp,-32
  400ae0:	afbf001c 	sw	ra,28(sp)
  400ae4:	afa00014 	sw	zero,20(sp)
  400ae8:	afa00010 	sw	zero,16(sp)
  400aec:	00c03825 	move	a3,a2
  400af0:	00a03025 	move	a2,a1
  400af4:	00802825 	move	a1,a0
  400af8:	0c1002ff 	jal	400bfc <msyscall>
  400afc:	24042554 	li	a0,9556
  400b00:	8fbf001c 	lw	ra,28(sp)
  400b04:	03e00008 	jr	ra
  400b08:	27bd0020 	addiu	sp,sp,32

00400b0c <syscall_rt_require_device>:
  400b0c:	27bdffe0 	addiu	sp,sp,-32
  400b10:	afbf001c 	sw	ra,28(sp)
  400b14:	afa00014 	sw	zero,20(sp)
  400b18:	afa00010 	sw	zero,16(sp)
  400b1c:	00003825 	move	a3,zero
  400b20:	00a03025 	move	a2,a1
  400b24:	00802825 	move	a1,a0
  400b28:	0c1002ff 	jal	400bfc <msyscall>
  400b2c:	24042555 	li	a0,9557
  400b30:	8fbf001c 	lw	ra,28(sp)
  400b34:	03e00008 	jr	ra
  400b38:	27bd0020 	addiu	sp,sp,32

00400b3c <syscall_rt_release_device>:
  400b3c:	27bdffe0 	addiu	sp,sp,-32
  400b40:	afbf001c 	sw	ra,28(sp)
  400b44:	afa00014 	sw	zero,20(sp)
  400b48:	afa00010 	sw	zero,16(sp)
  400b4c:	00003825 	move	a3,zero
  400b50:	00a03025 	move	a2,a1
  400b54:	00802825 	move	a1,a0
  400b58:	0c1002ff 	jal	400bfc <msyscall>
  400b5c:	24042556 	li	a0,9558
  400b60:	8fbf001c 	lw	ra,28(sp)
  400b64:	03e00008 	jr	ra
  400b68:	27bd0020 	addiu	sp,sp,32

00400b6c <syscall_rt_claim_device>:
  400b6c:	27bdffe0 	addiu	sp,sp,-32
  400b70:	afbf001c 	sw	ra,28(sp)
  400b74:	afa00014 	sw	zero,20(sp)
  400b78:	afa00010 	sw	zero,16(sp)
  400b7c:	00003825 	move	a3,zero
  400b80:	00003025 	move	a2,zero
  400b84:	00802825 	move	a1,a0
  400b88:	0c1002ff 	jal	400bfc <msyscall>
  400b8c:	24042557 	li	a0,9559
  400b90:	8fbf001c 	lw	ra,28(sp)
  400b94:	03e00008 	jr	ra
  400b98:	27bd0020 	addiu	sp,sp,32

00400b9c <syscall_rt_write_by_num>:
  400b9c:	27bdffe0 	addiu	sp,sp,-32
  400ba0:	afbf001c 	sw	ra,28(sp)
  400ba4:	afa00014 	sw	zero,20(sp)
  400ba8:	afa00010 	sw	zero,16(sp)
  400bac:	00c03825 	move	a3,a2
  400bb0:	00a03025 	move	a2,a1
  400bb4:	00802825 	move	a1,a0
  400bb8:	0c1002ff 	jal	400bfc <msyscall>
  400bbc:	24042558 	li	a0,9560
  400bc0:	8fbf001c 	lw	ra,28(sp)
  400bc4:	03e00008 	jr	ra
  400bc8:	27bd0020 	addiu	sp,sp,32

00400bcc <syscall_rt_exit>:
  400bcc:	27bdffe0 	addiu	sp,sp,-32
  400bd0:	afbf001c 	sw	ra,28(sp)
  400bd4:	afa00014 	sw	zero,20(sp)
  400bd8:	afa00010 	sw	zero,16(sp)
  400bdc:	00003825 	move	a3,zero
  400be0:	00003025 	move	a2,zero
  400be4:	00002825 	move	a1,zero
  400be8:	0c1002ff 	jal	400bfc <msyscall>
  400bec:	24042559 	li	a0,9561
  400bf0:	8fbf001c 	lw	ra,28(sp)
  400bf4:	03e00008 	jr	ra
  400bf8:	27bd0020 	addiu	sp,sp,32

00400bfc <msyscall>:
  400bfc:	00000000 	nop
  400c00:	000000c0 	ehb
  400c04:	00000000 	nop
  400c08:	0000000c 	syscall
  400c0c:	00000000 	nop
  400c10:	03e00008 	jr	ra
  400c14:	00000000 	nop
  400c18:	00000000 	nop

00400c1c <strlen>:
  400c1c:	90820000 	lbu	v0,0(a0)
  400c20:	10400008 	beqz	v0,400c44 <strlen+0x28>
  400c24:	00000000 	nop
  400c28:	00001025 	move	v0,zero
  400c2c:	24840001 	addiu	a0,a0,1
  400c30:	90830000 	lbu	v1,0(a0)
  400c34:	1460fffd 	bnez	v1,400c2c <strlen+0x10>
  400c38:	24420001 	addiu	v0,v0,1
  400c3c:	03e00008 	jr	ra
  400c40:	00000000 	nop
  400c44:	03e00008 	jr	ra
  400c48:	00001025 	move	v0,zero

00400c4c <strnlen>:
  400c4c:	10a0000d 	beqz	a1,400c84 <strnlen+0x38>
  400c50:	00000000 	nop
  400c54:	90820000 	lbu	v0,0(a0)
  400c58:	1040000c 	beqz	v0,400c8c <strnlen+0x40>
  400c5c:	00852821 	addu	a1,a0,a1
  400c60:	00001025 	move	v0,zero
  400c64:	24840001 	addiu	a0,a0,1
  400c68:	10a40004 	beq	a1,a0,400c7c <strnlen+0x30>
  400c6c:	24420001 	addiu	v0,v0,1
  400c70:	90830000 	lbu	v1,0(a0)
  400c74:	1460fffc 	bnez	v1,400c68 <strnlen+0x1c>
  400c78:	24840001 	addiu	a0,a0,1
  400c7c:	03e00008 	jr	ra
  400c80:	00000000 	nop
  400c84:	03e00008 	jr	ra
  400c88:	00001025 	move	v0,zero
  400c8c:	00001025 	move	v0,zero
  400c90:	03e00008 	jr	ra
  400c94:	00000000 	nop

00400c98 <strcpy>:
  400c98:	00801025 	move	v0,a0
  400c9c:	00801825 	move	v1,a0
  400ca0:	24630001 	addiu	v1,v1,1
  400ca4:	24a50001 	addiu	a1,a1,1
  400ca8:	90a6ffff 	lbu	a2,-1(a1)
  400cac:	14c0fffc 	bnez	a2,400ca0 <strcpy+0x8>
  400cb0:	a066ffff 	sb	a2,-1(v1)
  400cb4:	03e00008 	jr	ra
  400cb8:	00000000 	nop

00400cbc <strcat>:
  400cbc:	27bdffe0 	addiu	sp,sp,-32
  400cc0:	afbf001c 	sw	ra,28(sp)
  400cc4:	afb10018 	sw	s1,24(sp)
  400cc8:	afb00014 	sw	s0,20(sp)
  400ccc:	00808025 	move	s0,a0
  400cd0:	0c100307 	jal	400c1c <strlen>
  400cd4:	00a08825 	move	s1,a1
  400cd8:	02202825 	move	a1,s1
  400cdc:	0c100326 	jal	400c98 <strcpy>
  400ce0:	02022021 	addu	a0,s0,v0
  400ce4:	02001025 	move	v0,s0
  400ce8:	8fbf001c 	lw	ra,28(sp)
  400cec:	8fb10018 	lw	s1,24(sp)
  400cf0:	8fb00014 	lw	s0,20(sp)
  400cf4:	03e00008 	jr	ra
  400cf8:	27bd0020 	addiu	sp,sp,32

00400cfc <strncpy>:
  400cfc:	10c0000a 	beqz	a2,400d28 <strncpy+0x2c>
  400d00:	00801025 	move	v0,a0
  400d04:	00863021 	addu	a2,a0,a2
  400d08:	00801825 	move	v1,a0
  400d0c:	24630001 	addiu	v1,v1,1
  400d10:	90a70000 	lbu	a3,0(a1)
  400d14:	a067ffff 	sb	a3,-1(v1)
  400d18:	90a70000 	lbu	a3,0(a1)
  400d1c:	0007382b 	sltu	a3,zero,a3
  400d20:	14c3fffa 	bne	a2,v1,400d0c <strncpy+0x10>
  400d24:	00a72821 	addu	a1,a1,a3
  400d28:	03e00008 	jr	ra
  400d2c:	00000000 	nop

00400d30 <strlcpy>:
  400d30:	10c00010 	beqz	a2,400d74 <strlcpy+0x44>
  400d34:	00801025 	move	v0,a0
  400d38:	24c6ffff 	addiu	a2,a2,-1
  400d3c:	50c0000d 	beqzl	a2,400d74 <strlcpy+0x44>
  400d40:	a0400000 	sb	zero,0(v0)
  400d44:	90a30000 	lbu	v1,0(a1)
  400d48:	5060000a 	beqzl	v1,400d74 <strlcpy+0x44>
  400d4c:	a0400000 	sb	zero,0(v0)
  400d50:	24420001 	addiu	v0,v0,1
  400d54:	24a50001 	addiu	a1,a1,1
  400d58:	24c6ffff 	addiu	a2,a2,-1
  400d5c:	10c00004 	beqz	a2,400d70 <strlcpy+0x40>
  400d60:	a043ffff 	sb	v1,-1(v0)
  400d64:	90a30000 	lbu	v1,0(a1)
  400d68:	5460fffa 	bnezl	v1,400d54 <strlcpy+0x24>
  400d6c:	24420001 	addiu	v0,v0,1
  400d70:	a0400000 	sb	zero,0(v0)
  400d74:	03e00008 	jr	ra
  400d78:	00441023 	subu	v0,v0,a0
  400d7c:	1000fffc 	b	400d70 <strlcpy+0x40>
  400d80:	00801025 	move	v0,a0

00400d84 <strcmp>:
  400d84:	90820000 	lbu	v0,0(a0)
  400d88:	1040000b 	beqz	v0,400db8 <strcmp+0x34>
  400d8c:	90a30000 	lbu	v1,0(a1)
  400d90:	14620009 	bne	v1,v0,400db8 <strcmp+0x34>
  400d94:	00000000 	nop
  400d98:	24840001 	addiu	a0,a0,1
  400d9c:	90820000 	lbu	v0,0(a0)
  400da0:	10400004 	beqz	v0,400db4 <strcmp+0x30>
  400da4:	24a50001 	addiu	a1,a1,1
  400da8:	90a30000 	lbu	v1,0(a1)
  400dac:	5062fffb 	beql	v1,v0,400d9c <strcmp+0x18>
  400db0:	24840001 	addiu	a0,a0,1
  400db4:	90a30000 	lbu	v1,0(a1)
  400db8:	03e00008 	jr	ra
  400dbc:	00431023 	subu	v0,v0,v1

00400dc0 <strncmp>:
  400dc0:	10c00013 	beqz	a2,400e10 <strncmp+0x50>
  400dc4:	00000000 	nop
  400dc8:	90820000 	lbu	v0,0(a0)
  400dcc:	1040000e 	beqz	v0,400e08 <strncmp+0x48>
  400dd0:	90a30000 	lbu	v1,0(a1)
  400dd4:	1462000c 	bne	v1,v0,400e08 <strncmp+0x48>
  400dd8:	00000000 	nop
  400ddc:	00863021 	addu	a2,a0,a2
  400de0:	24840001 	addiu	a0,a0,1
  400de4:	1086000c 	beq	a0,a2,400e18 <strncmp+0x58>
  400de8:	24a50001 	addiu	a1,a1,1
  400dec:	90820000 	lbu	v0,0(a0)
  400df0:	10400005 	beqz	v0,400e08 <strncmp+0x48>
  400df4:	90a30000 	lbu	v1,0(a1)
  400df8:	5062fffa 	beql	v1,v0,400de4 <strncmp+0x24>
  400dfc:	24840001 	addiu	a0,a0,1
  400e00:	90820000 	lbu	v0,0(a0)
  400e04:	90a30000 	lbu	v1,0(a1)
  400e08:	03e00008 	jr	ra
  400e0c:	00431023 	subu	v0,v0,v1
  400e10:	03e00008 	jr	ra
  400e14:	00001025 	move	v0,zero
  400e18:	03e00008 	jr	ra
  400e1c:	00001025 	move	v0,zero

00400e20 <strchr>:
  400e20:	90820000 	lbu	v0,0(a0)
  400e24:	1040000d 	beqz	v0,400e5c <strchr+0x3c>
  400e28:	00000000 	nop
  400e2c:	10a2000d 	beq	a1,v0,400e64 <strchr+0x44>
  400e30:	00000000 	nop
  400e34:	24840001 	addiu	a0,a0,1
  400e38:	90820000 	lbu	v0,0(a0)
  400e3c:	10400005 	beqz	v0,400e54 <strchr+0x34>
  400e40:	00000000 	nop
  400e44:	5445fffc 	bnel	v0,a1,400e38 <strchr+0x18>
  400e48:	24840001 	addiu	a0,a0,1
  400e4c:	03e00008 	jr	ra
  400e50:	00801025 	move	v0,a0
  400e54:	03e00008 	jr	ra
  400e58:	00000000 	nop
  400e5c:	03e00008 	jr	ra
  400e60:	00001025 	move	v0,zero
  400e64:	03e00008 	jr	ra
  400e68:	00801025 	move	v0,a0

00400e6c <strfind>:
  400e6c:	90830000 	lbu	v1,0(a0)
  400e70:	10600009 	beqz	v1,400e98 <strfind+0x2c>
  400e74:	00801025 	move	v0,a0
  400e78:	10a30009 	beq	a1,v1,400ea0 <strfind+0x34>
  400e7c:	00000000 	nop
  400e80:	24420001 	addiu	v0,v0,1
  400e84:	90430000 	lbu	v1,0(v0)
  400e88:	10600005 	beqz	v1,400ea0 <strfind+0x34>
  400e8c:	00000000 	nop
  400e90:	5465fffc 	bnel	v1,a1,400e84 <strfind+0x18>
  400e94:	24420001 	addiu	v0,v0,1
  400e98:	03e00008 	jr	ra
  400e9c:	00000000 	nop
  400ea0:	03e00008 	jr	ra
  400ea4:	00000000 	nop

00400ea8 <memset>:
  400ea8:	24c3ffff 	addiu	v1,a2,-1
  400eac:	04600006 	bltz	v1,400ec8 <memset+0x20>
  400eb0:	00801025 	move	v0,a0
  400eb4:	00863021 	addu	a2,a0,a2
  400eb8:	00801825 	move	v1,a0
  400ebc:	24630001 	addiu	v1,v1,1
  400ec0:	14c3fffe 	bne	a2,v1,400ebc <memset+0x14>
  400ec4:	a065ffff 	sb	a1,-1(v1)
  400ec8:	03e00008 	jr	ra
  400ecc:	00000000 	nop

00400ed0 <memmove>:
  400ed0:	00a4182b 	sltu	v1,a1,a0
  400ed4:	10600005 	beqz	v1,400eec <memmove+0x1c>
  400ed8:	00801025 	move	v0,a0
  400edc:	00a61821 	addu	v1,a1,a2
  400ee0:	0083202b 	sltu	a0,a0,v1
  400ee4:	1480000c 	bnez	a0,400f18 <memmove+0x48>
  400ee8:	00000000 	nop
  400eec:	10c00011 	beqz	a2,400f34 <memmove+0x64>
  400ef0:	00000000 	nop
  400ef4:	00a63021 	addu	a2,a1,a2
  400ef8:	00401825 	move	v1,v0
  400efc:	24630001 	addiu	v1,v1,1
  400f00:	24a50001 	addiu	a1,a1,1
  400f04:	90a7ffff 	lbu	a3,-1(a1)
  400f08:	14a6fffc 	bne	a1,a2,400efc <memmove+0x2c>
  400f0c:	a067ffff 	sb	a3,-1(v1)
  400f10:	03e00008 	jr	ra
  400f14:	00000000 	nop
  400f18:	10c0fffd 	beqz	a2,400f10 <memmove+0x40>
  400f1c:	00463821 	addu	a3,v0,a2
  400f20:	24e7ffff 	addiu	a3,a3,-1
  400f24:	2463ffff 	addiu	v1,v1,-1
  400f28:	90660000 	lbu	a2,0(v1)
  400f2c:	14a3fffc 	bne	a1,v1,400f20 <memmove+0x50>
  400f30:	a0e60000 	sb	a2,0(a3)
  400f34:	03e00008 	jr	ra
  400f38:	00000000 	nop

00400f3c <memcpy>:
  400f3c:	27bdffe8 	addiu	sp,sp,-24
  400f40:	afbf0014 	sw	ra,20(sp)
  400f44:	0c1003b4 	jal	400ed0 <memmove>
  400f48:	00000000 	nop
  400f4c:	8fbf0014 	lw	ra,20(sp)
  400f50:	03e00008 	jr	ra
  400f54:	27bd0018 	addiu	sp,sp,24

00400f58 <memcmp>:
  400f58:	10c00010 	beqz	a2,400f9c <memcmp+0x44>
  400f5c:	00000000 	nop
  400f60:	90820000 	lbu	v0,0(a0)
  400f64:	90a30000 	lbu	v1,0(a1)
  400f68:	14430008 	bne	v0,v1,400f8c <memcmp+0x34>
  400f6c:	00863021 	addu	a2,a0,a2
  400f70:	24840001 	addiu	a0,a0,1
  400f74:	10c40007 	beq	a2,a0,400f94 <memcmp+0x3c>
  400f78:	24a50001 	addiu	a1,a1,1
  400f7c:	90820000 	lbu	v0,0(a0)
  400f80:	90a30000 	lbu	v1,0(a1)
  400f84:	5043fffb 	beql	v0,v1,400f74 <memcmp+0x1c>
  400f88:	24840001 	addiu	a0,a0,1
  400f8c:	03e00008 	jr	ra
  400f90:	00431023 	subu	v0,v0,v1
  400f94:	03e00008 	jr	ra
  400f98:	00001025 	move	v0,zero
  400f9c:	03e00008 	jr	ra
  400fa0:	00001025 	move	v0,zero

00400fa4 <memfind>:
  400fa4:	00863021 	addu	a2,a0,a2
  400fa8:	0086182b 	sltu	v1,a0,a2
  400fac:	1060000b 	beqz	v1,400fdc <memfind+0x38>
  400fb0:	00801025 	move	v0,a0
  400fb4:	30a500ff 	andi	a1,a1,0xff
  400fb8:	90830000 	lbu	v1,0(a0)
  400fbc:	10650009 	beq	v1,a1,400fe4 <memfind+0x40>
  400fc0:	00000000 	nop
  400fc4:	24420001 	addiu	v0,v0,1
  400fc8:	10c20006 	beq	a2,v0,400fe4 <memfind+0x40>
  400fcc:	00000000 	nop
  400fd0:	90430000 	lbu	v1,0(v0)
  400fd4:	5465fffc 	bnel	v1,a1,400fc8 <memfind+0x24>
  400fd8:	24420001 	addiu	v0,v0,1
  400fdc:	03e00008 	jr	ra
  400fe0:	00000000 	nop
  400fe4:	03e00008 	jr	ra
  400fe8:	00000000 	nop

00400fec <strtol>:
  400fec:	24030020 	li	v1,32
  400ff0:	24070009 	li	a3,9
  400ff4:	90820000 	lbu	v0,0(a0)
  400ff8:	5043fffe 	beql	v0,v1,400ff4 <strtol+0x8>
  400ffc:	24840001 	addiu	a0,a0,1
  401000:	5047fffc 	beql	v0,a3,400ff4 <strtol+0x8>
  401004:	24840001 	addiu	a0,a0,1
  401008:	2403002b 	li	v1,43
  40100c:	1043000e 	beq	v0,v1,401048 <strtol+0x5c>
  401010:	2403002d 	li	v1,45
  401014:	1043000f 	beq	v0,v1,401054 <strtol+0x68>
  401018:	00004025 	move	t0,zero
  40101c:	00c01025 	move	v0,a2
  401020:	7c022104 	ins	v0,zero,0x4,0x1
  401024:	14400023 	bnez	v0,4010b4 <strtol+0xc8>
  401028:	00001025 	move	v0,zero
  40102c:	90830000 	lbu	v1,0(a0)
  401030:	24020030 	li	v0,48
  401034:	1062000a 	beq	v1,v0,401060 <strtol+0x74>
  401038:	2402000a 	li	v0,10
  40103c:	0046300a 	movz	a2,v0,a2
  401040:	1000001c 	b	4010b4 <strtol+0xc8>
  401044:	00001025 	move	v0,zero
  401048:	24840001 	addiu	a0,a0,1
  40104c:	1000fff3 	b	40101c <strtol+0x30>
  401050:	00004025 	move	t0,zero
  401054:	24840001 	addiu	a0,a0,1
  401058:	1000fff0 	b	40101c <strtol+0x30>
  40105c:	24080001 	li	t0,1
  401060:	90830001 	lbu	v1,1(a0)
  401064:	24020078 	li	v0,120
  401068:	50620006 	beql	v1,v0,401084 <strtol+0x98>
  40106c:	24840002 	addiu	a0,a0,2
  401070:	54c00010 	bnezl	a2,4010b4 <strtol+0xc8>
  401074:	00001025 	move	v0,zero
  401078:	24840001 	addiu	a0,a0,1
  40107c:	1000fff0 	b	401040 <strtol+0x54>
  401080:	24060008 	li	a2,8
  401084:	1000ffee 	b	401040 <strtol+0x54>
  401088:	24060010 	li	a2,16
  40108c:	30e700ff 	andi	a3,a3,0xff
  401090:	2ce7001a 	sltiu	a3,a3,26
  401094:	10e0000f 	beqz	a3,4010d4 <strtol+0xe8>
  401098:	2467ffbf 	addiu	a3,v1,-65
  40109c:	2463ffa9 	addiu	v1,v1,-87
  4010a0:	0066382a 	slt	a3,v1,a2
  4010a4:	10e0000f 	beqz	a3,4010e4 <strtol+0xf8>
  4010a8:	70463802 	mul	a3,v0,a2
  4010ac:	24840001 	addiu	a0,a0,1
  4010b0:	00e31021 	addu	v0,a3,v1
  4010b4:	90830000 	lbu	v1,0(a0)
  4010b8:	2467ffd0 	addiu	a3,v1,-48
  4010bc:	30e700ff 	andi	a3,a3,0xff
  4010c0:	2ce7000a 	sltiu	a3,a3,10
  4010c4:	10e0fff1 	beqz	a3,40108c <strtol+0xa0>
  4010c8:	2467ff9f 	addiu	a3,v1,-97
  4010cc:	1000fff4 	b	4010a0 <strtol+0xb4>
  4010d0:	2463ffd0 	addiu	v1,v1,-48
  4010d4:	30e700ff 	andi	a3,a3,0xff
  4010d8:	2ce7001a 	sltiu	a3,a3,26
  4010dc:	14e0fff0 	bnez	a3,4010a0 <strtol+0xb4>
  4010e0:	2463ffc9 	addiu	v1,v1,-55
  4010e4:	54a00001 	bnezl	a1,4010ec <strtol+0x100>
  4010e8:	aca40000 	sw	a0,0(a1)
  4010ec:	00021823 	negu	v1,v0
  4010f0:	03e00008 	jr	ra
  4010f4:	0068100b 	movn	v0,v1,t0

004010f8 <strspn>:
  4010f8:	90a80000 	lbu	t0,0(a1)
  4010fc:	10000005 	b	401114 <strspn+0x1c>
  401100:	00003825 	move	a3,zero
  401104:	10c00010 	beqz	a2,401148 <strspn+0x50>
  401108:	00e01025 	move	v0,a3
  40110c:	24840001 	addiu	a0,a0,1
  401110:	24e70001 	addiu	a3,a3,1
  401114:	5100000c 	beqzl	t0,401148 <strspn+0x50>
  401118:	00e01025 	move	v0,a3
  40111c:	90860000 	lbu	a2,0(a0)
  401120:	1106fff8 	beq	t0,a2,401104 <strspn+0xc>
  401124:	00000000 	nop
  401128:	24a20001 	addiu	v0,a1,1
  40112c:	90430000 	lbu	v1,0(v0)
  401130:	50600005 	beqzl	v1,401148 <strspn+0x50>
  401134:	00e01025 	move	v0,a3
  401138:	1466fffc 	bne	v1,a2,40112c <strspn+0x34>
  40113c:	24420001 	addiu	v0,v0,1
  401140:	1000fff0 	b	401104 <strspn+0xc>
  401144:	00000000 	nop
  401148:	03e00008 	jr	ra
  40114c:	00000000 	nop

00401150 <strpbrk>:
  401150:	90870000 	lbu	a3,0(a0)
  401154:	10e00014 	beqz	a3,4011a8 <strpbrk+0x58>
  401158:	00000000 	nop
  40115c:	90a20000 	lbu	v0,0(a1)
  401160:	00404025 	move	t0,v0
  401164:	5100000b 	beqzl	t0,401194 <strpbrk+0x44>
  401168:	24840001 	addiu	a0,a0,1
  40116c:	10470010 	beq	v0,a3,4011b0 <strpbrk+0x60>
  401170:	00000000 	nop
  401174:	24a30001 	addiu	v1,a1,1
  401178:	90660000 	lbu	a2,0(v1)
  40117c:	50c00005 	beqzl	a2,401194 <strpbrk+0x44>
  401180:	24840001 	addiu	a0,a0,1
  401184:	14c7fffc 	bne	a2,a3,401178 <strpbrk+0x28>
  401188:	24630001 	addiu	v1,v1,1
  40118c:	03e00008 	jr	ra
  401190:	00801025 	move	v0,a0
  401194:	90870000 	lbu	a3,0(a0)
  401198:	14e0fff2 	bnez	a3,401164 <strpbrk+0x14>
  40119c:	00000000 	nop
  4011a0:	03e00008 	jr	ra
  4011a4:	00001025 	move	v0,zero
  4011a8:	03e00008 	jr	ra
  4011ac:	00001025 	move	v0,zero
  4011b0:	03e00008 	jr	ra
  4011b4:	00801025 	move	v0,a0

004011b8 <strtok_inside>:
  4011b8:	27bdffe0 	addiu	sp,sp,-32
  4011bc:	afbf001c 	sw	ra,28(sp)
  4011c0:	afb20018 	sw	s2,24(sp)
  4011c4:	afb10014 	sw	s1,20(sp)
  4011c8:	afb00010 	sw	s0,16(sp)
  4011cc:	00808025 	move	s0,a0
  4011d0:	00a08825 	move	s1,a1
  4011d4:	10800016 	beqz	a0,401230 <strtok_inside+0x78>
  4011d8:	00c09025 	move	s2,a2
  4011dc:	02202825 	move	a1,s1
  4011e0:	0c10043e 	jal	4010f8 <strspn>
  4011e4:	02002025 	move	a0,s0
  4011e8:	02028021 	addu	s0,s0,v0
  4011ec:	92020000 	lbu	v0,0(s0)
  4011f0:	10400015 	beqz	v0,401248 <strtok_inside+0x90>
  4011f4:	02202825 	move	a1,s1
  4011f8:	0c100454 	jal	401150 <strpbrk>
  4011fc:	02002025 	move	a0,s0
  401200:	1040000d 	beqz	v0,401238 <strtok_inside+0x80>
  401204:	00002825 	move	a1,zero
  401208:	a0400000 	sb	zero,0(v0)
  40120c:	24420001 	addiu	v0,v0,1
  401210:	ae420000 	sw	v0,0(s2)
  401214:	02001025 	move	v0,s0
  401218:	8fbf001c 	lw	ra,28(sp)
  40121c:	8fb20018 	lw	s2,24(sp)
  401220:	8fb10014 	lw	s1,20(sp)
  401224:	8fb00010 	lw	s0,16(sp)
  401228:	03e00008 	jr	ra
  40122c:	27bd0020 	addiu	sp,sp,32
  401230:	1000ffea 	b	4011dc <strtok_inside+0x24>
  401234:	8cd00000 	lw	s0,0(a2)
  401238:	0c100388 	jal	400e20 <strchr>
  40123c:	02002025 	move	a0,s0
  401240:	1000fff4 	b	401214 <strtok_inside+0x5c>
  401244:	ae420000 	sw	v0,0(s2)
  401248:	1000fff2 	b	401214 <strtok_inside+0x5c>
  40124c:	00008025 	move	s0,zero

00401250 <strtok>:
  401250:	27bdffe8 	addiu	sp,sp,-24
  401254:	afbf0014 	sw	ra,20(sp)
  401258:	3c060041 	lui	a2,0x41
  40125c:	0c10046e 	jal	4011b8 <strtok_inside>
  401260:	24c613a4 	addiu	a2,a2,5028
  401264:	8fbf0014 	lw	ra,20(sp)
  401268:	03e00008 	jr	ra
  40126c:	27bd0018 	addiu	sp,sp,24

Disassembly of section .rld_map:

00411374 <__RLD_MAP>:
  411374:	00000000 	nop
